(lp0
(lp1
I3
aI6
aI2
aI5
aI10
aI11
aI11
aI7
aI15
aI11
aI17
aI18
aI14
aI13
aI15
aI16
aI17
aI13
aI15
aI17
aa(lp2
I1
aI4
aI8
aI9
aI4
aI9
aI7
aI9
aI8
aI10
aI11
aI15
aI11
aI13
aI11
aI15
aI13
aI12
aI11
aI10
aa(lp3
I5
aI8
aI8
aI8
aI9
aI10
aI11
aI11
aI18
aI18
aI14
aI13
aI17
aI15
aI13
aI14
aI15
aI14
aI18
aI16
aa(lp4
I1
aI5
aI9
aI4
aI8
aI15
aI15
aI14
aI12
aI10
aI17
aI17
aI18
aI18
aI14
aI15
aI18
aI13
aI15
aI18
aa(lp5
I2
aI4
aI9
aI8
aI5
aI11
aI11
aI7
aI7
aI8
aI10
aI13
aI15
aI11
aI16
aI16
aI18
aI15
aI14
aI18
aa(lp6
I5
aI5
aI6
aI6
aI6
aI8
aI7
aI4
aI9
aI11
aI11
aI13
aI14
aI12
aI17
aI16
aI15
aI13
aI14
aI18
aa(lp7
I4
aI5
aI6
aI5
aI7
aI7
aI11
aI10
aI11
aI13
aI13
aI13
aI18
aI17
aI14
aI16
aI17
aI15
aI13
aI18
aa(lp8
I3
aI3
aI4
aI8
aI9
aI12
aI8
aI7
aI7
aI7
aI10
aI12
aI10
aI11
aI13
aI15
aI14
aI18
aI18
aI15
aa(lp9
I2
aI5
aI7
aI4
aI6
aI5
aI4
aI9
aI12
aI15
aI14
aI13
aI15
aI17
aI15
aI16
aI17
aI16
aI13
aI14
aa(lp10
I4
aI9
aI8
aI5
aI5
aI7
aI9
aI11
aI8
aI15
aI15
aI18
aI14
aI14
aI15
aI16
aI13
aI17
aI13
aI14
aa(lp11
I1
aI9
aI8
aI7
aI8
aI10
aI10
aI9
aI13
aI10
aI13
aI13
aI15
aI16
aI14
aI15
aI14
aI15
aI16
aI15
aa(lp12
I4
aI1
aI3
aI9
aI5
aI12
aI7
aI10
aI10
aI11
aI18
aI15
aI14
aI15
aI16
aI18
aI14
aI15
aI18
aI14
aa(lp13
I6
aI8
aI6
aI8
aI12
aI8
aI10
aI13
aI17
aI15
aI18
aI14
aI17
aI16
aI13
aI14
aI17
aI18
aI15
aI18
aa(lp14
I3
aI1
aI7
aI8
aI9
aI7
aI9
aI8
aI10
aI12
aI7
aI10
aI12
aI9
aI12
aI13
aI13
aI13
aI16
aI18
aa(lp15
I1
aI5
aI9
aI10
aI9
aI11
aI10
aI9
aI7
aI10
aI8
aI12
aI9
aI7
aI10
aI8
aI10
aI15
aI10
aI10
aa(lp16
I5
aI2
aI4
aI6
aI7
aI8
aI12
aI8
aI7
aI13
aI13
aI12
aI16
aI15
aI14
aI13
aI16
aI17
aI13
aI13
aa(lp17
I1
aI9
aI11
aI11
aI10
aI15
aI17
aI18
aI18
aI16
aI14
aI15
aI18
aI18
aI14
aI13
aI14
aI17
aI14
aI16
aa(lp18
I3
aI4
aI8
aI7
aI11
aI15
aI18
aI13
aI16
aI16
aI16
aI18
aI18
aI15
aI16
aI16
aI13
aI13
aI15
aI17
aa(lp19
I4
aI3
aI9
aI9
aI7
aI12
aI8
aI8
aI12
aI14
aI10
aI12
aI15
aI13
aI15
aI10
aI15
aI15
aI12
aI13
aa(lp20
I6
aI6
aI5
aI11
aI11
aI12
aI7
aI8
aI10
aI14
aI14
aI14
aI13
aI17
aI17
aI18
aI16
aI15
aI13
aI16
aa(lp21
I1
aI1
aI1
aI1
aI4
aI5
aI9
aI11
aI10
aI7
aI10
aI13
aI16
aI15
aI13
aI18
aI18
aI14
aI18
aI17
aa(lp22
I1
aI5
aI3
aI3
aI5
aI5
aI9
aI8
aI8
aI12
aI11
aI9
aI7
aI11
aI14
aI15
aI12
aI12
aI17
aI18
aa(lp23
I6
aI5
aI5
aI4
aI8
aI7
aI7
aI10
aI10
aI11
aI12
aI15
aI18
aI14
aI14
aI14
aI13
aI13
aI18
aI14
aa(lp24
I1
aI5
aI8
aI7
aI5
aI4
aI7
aI9
aI8
aI15
aI15
aI14
aI12
aI15
aI13
aI13
aI14
aI16
aI18
aI17
aa(lp25
I6
aI3
aI9
aI4
aI6
aI7
aI8
aI14
aI16
aI14
aI18
aI18
aI16
aI18
aI14
aI13
aI15
aI16
aI17
aI13
aa(lp26
I3
aI2
aI6
aI8
aI9
aI10
aI8
aI7
aI7
aI10
aI9
aI15
aI13
aI10
aI12
aI15
aI14
aI14
aI13
aI18
aa(lp27
I1
aI9
aI6
aI5
aI4
aI5
aI11
aI10
aI8
aI13
aI15
aI15
aI12
aI10
aI14
aI12
aI10
aI12
aI10
aI13
aa(lp28
I2
aI5
aI8
aI10
aI9
aI11
aI7
aI12
aI11
aI15
aI12
aI12
aI10
aI12
aI13
aI11
aI11
aI12
aI15
aI15
aa(lp29
I6
aI5
aI4
aI7
aI8
aI9
aI9
aI11
aI8
aI12
aI9
aI9
aI7
aI11
aI11
aI15
aI16
aI18
aI18
aI14
aa(lp30
I4
aI8
aI9
aI4
aI9
aI11
aI14
aI15
aI14
aI13
aI16
aI14
aI14
aI14
aI16
aI13
aI15
aI17
aI13
aI18
aa(lp31
I3
aI6
aI8
aI7
aI9
aI8
aI10
aI11
aI10
aI16
aI17
aI15
aI18
aI17
aI15
aI17
aI13
aI17
aI15
aI15
aa(lp32
I1
aI9
aI9
aI13
aI12
aI10
aI13
aI16
aI14
aI15
aI14
aI17
aI14
aI14
aI18
aI13
aI18
aI13
aI14
aI17
aa(lp33
I4
aI2
aI5
aI8
aI9
aI15
aI14
aI14
aI17
aI14
aI18
aI16
aI18
aI16
aI18
aI15
aI13
aI14
aI15
aI18
aa(lp34
I1
aI6
aI6
aI7
aI6
aI11
aI9
aI11
aI14
aI12
aI16
aI15
aI18
aI16
aI17
aI13
aI17
aI16
aI14
aI14
aa(lp35
I1
aI1
aI5
aI6
aI9
aI9
aI11
aI8
aI13
aI15
aI13
aI14
aI10
aI13
aI17
aI18
aI15
aI16
aI17
aI16
aa(lp36
I2
aI4
aI7
aI5
aI4
aI9
aI10
aI13
aI12
aI15
aI17
aI14
aI14
aI14
aI17
aI18
aI13
aI17
aI14
aI13
aa(lp37
I1
aI4
aI9
aI9
aI9
aI12
aI8
aI13
aI10
aI14
aI13
aI13
aI13
aI14
aI18
aI16
aI17
aI15
aI13
aI16
aa(lp38
I2
aI9
aI8
aI12
aI18
aI17
aI13
aI16
aI18
aI13
aI18
aI15
aI15
aI14
aI17
aI18
aI15
aI15
aI15
aI14
aa(lp39
I2
aI2
aI2
aI4
aI8
aI5
aI7
aI11
aI9
aI12
aI9
aI7
aI9
aI7
aI12
aI8
aI7
aI8
aI11
aI14
aa(lp40
I5
aI8
aI4
aI9
aI9
aI12
aI7
aI11
aI10
aI11
aI15
aI12
aI12
aI10
aI14
aI13
aI11
aI17
aI13
aI13
aa(lp41
I2
aI4
aI6
aI7
aI10
aI12
aI10
aI10
aI13
aI13
aI17
aI16
aI15
aI18
aI13
aI13
aI13
aI16
aI18
aI16
aa(lp42
I2
aI8
aI4
aI8
aI12
aI8
aI14
aI13
aI13
aI14
aI15
aI18
aI13
aI15
aI17
aI15
aI14
aI14
aI16
aI18
aa(lp43
I2
aI2
aI4
aI5
aI7
aI10
aI11
aI8
aI14
aI15
aI13
aI10
aI11
aI13
aI12
aI14
aI18
aI15
aI15
aI14
aa(lp44
I3
aI2
aI3
aI7
aI11
aI10
aI14
aI15
aI17
aI13
aI13
aI13
aI17
aI15
aI13
aI13
aI16
aI15
aI17
aI16
aa(lp45
I1
aI5
aI9
aI9
aI9
aI13
aI10
aI15
aI15
aI16
aI14
aI15
aI14
aI14
aI13
aI18
aI15
aI13
aI13
aI15
aa(lp46
I2
aI9
aI9
aI8
aI5
aI4
aI9
aI9
aI4
aI9
aI7
aI7
aI9
aI7
aI11
aI13
aI13
aI14
aI13
aI13
aa(lp47
I5
aI7
aI11
aI11
aI12
aI10
aI7
aI8
aI7
aI12
aI10
aI9
aI11
aI9
aI11
aI12
aI11
aI10
aI8
aI10
aa(lp48
I2
aI4
aI7
aI8
aI11
aI10
aI8
aI11
aI7
aI10
aI10
aI12
aI10
aI12
aI14
aI13
aI11
aI13
aI15
aI15
aa(lp49
I4
aI1
aI5
aI6
aI4
aI8
aI8
aI7
aI9
aI8
aI7
aI11
aI8
aI8
aI10
aI9
aI12
aI10
aI11
aI17
aa(lp50
I1
aI4
aI4
aI8
aI5
aI7
aI7
aI14
aI12
aI13
aI17
aI14
aI15
aI15
aI13
aI17
aI18
aI13
aI13
aI15
aa(lp51
I1
aI8
aI11
aI9
aI8
aI10
aI7
aI10
aI14
aI12
aI10
aI14
aI13
aI14
aI13
aI15
aI15
aI17
aI16
aI17
aa(lp52
I6
aI5
aI3
aI2
aI4
aI4
aI7
aI9
aI4
aI4
aI7
aI11
aI13
aI10
aI13
aI13
aI13
aI14
aI12
aI14
aa(lp53
I4
aI5
aI9
aI8
aI10
aI14
aI15
aI11
aI13
aI16
aI15
aI15
aI17
aI17
aI13
aI16
aI15
aI17
aI13
aI18
aa(lp54
I5
aI8
aI4
aI6
aI7
aI9
aI12
aI15
aI16
aI14
aI15
aI13
aI14
aI18
aI18
aI13
aI18
aI14
aI18
aI18
aa(lp55
I3
aI5
aI4
aI7
aI7
aI6
aI6
aI7
aI8
aI13
aI10
aI11
aI11
aI18
aI14
aI16
aI18
aI13
aI16
aI16
aa(lp56
I4
aI5
aI2
aI3
aI6
aI8
aI8
aI15
aI15
aI12
aI17
aI14
aI15
aI13
aI14
aI16
aI13
aI17
aI17
aI14
aa(lp57
I5
aI5
aI7
aI8
aI10
aI17
aI15
aI17
aI16
aI13
aI18
aI15
aI15
aI13
aI17
aI17
aI16
aI14
aI17
aI13
aa(lp58
I2
aI7
aI6
aI8
aI7
aI4
aI8
aI10
aI12
aI9
aI8
aI10
aI8
aI11
aI10
aI15
aI15
aI12
aI11
aI15
aa(lp59
I3
aI4
aI9
aI8
aI8
aI7
aI8
aI10
aI12
aI11
aI7
aI9
aI13
aI11
aI11
aI15
aI15
aI14
aI13
aI18
aa(lp60
I5
aI6
aI10
aI7
aI12
aI9
aI15
aI13
aI11
aI15
aI14
aI17
aI16
aI18
aI18
aI14
aI13
aI17
aI16
aI15
aa(lp61
I2
aI9
aI9
aI8
aI11
aI12
aI12
aI12
aI10
aI10
aI11
aI18
aI15
aI16
aI17
aI17
aI14
aI14
aI14
aI15
aa(lp62
I5
aI5
aI7
aI5
aI11
aI7
aI9
aI12
aI11
aI11
aI10
aI12
aI18
aI13
aI15
aI15
aI13
aI18
aI14
aI16
aa(lp63
I2
aI4
aI8
aI4
aI8
aI9
aI8
aI14
aI14
aI15
aI18
aI16
aI14
aI13
aI18
aI17
aI18
aI17
aI15
aI17
aa(lp64
I2
aI3
aI3
aI6
aI9
aI7
aI5
aI11
aI7
aI7
aI8
aI12
aI7
aI12
aI8
aI10
aI12
aI7
aI10
aI12
aa(lp65
I1
aI5
aI10
aI7
aI11
aI9
aI12
aI12
aI12
aI11
aI14
aI10
aI14
aI14
aI14
aI13
aI16
aI15
aI18
aI16
aa(lp66
I2
aI3
aI7
aI7
aI9
aI11
aI12
aI11
aI11
aI13
aI13
aI15
aI11
aI10
aI15
aI18
aI17
aI14
aI16
aI18
aa(lp67
I3
aI5
aI5
aI9
aI5
aI4
aI7
aI11
aI7
aI9
aI9
aI8
aI10
aI7
aI12
aI8
aI9
aI11
aI7
aI9
aa(lp68
I3
aI7
aI5
aI7
aI7
aI9
aI4
aI6
aI8
aI5
aI11
aI12
aI15
aI13
aI12
aI14
aI11
aI13
aI13
aI13
aa(lp69
I1
aI2
aI2
aI5
aI6
aI4
aI11
aI7
aI9
aI8
aI11
aI8
aI9
aI11
aI10
aI12
aI11
aI10
aI10
aI9
aa(lp70
I3
aI6
aI4
aI9
aI9
aI10
aI12
aI13
aI10
aI17
aI16
aI18
aI14
aI18
aI17
aI15
aI15
aI17
aI16
aI16
aa(lp71
I6
aI6
aI9
aI7
aI10
aI13
aI16
aI15
aI18
aI18
aI13
aI14
aI13
aI17
aI16
aI16
aI16
aI13
aI15
aI17
aa(lp72
I2
aI3
aI8
aI9
aI12
aI7
aI9
aI13
aI12
aI11
aI13
aI10
aI13
aI11
aI15
aI14
aI15
aI13
aI18
aI16
aa(lp73
I3
aI6
aI4
aI1
aI1
aI4
aI11
aI11
aI15
aI13
aI18
aI16
aI18
aI14
aI13
aI15
aI16
aI18
aI17
aI14
aa(lp74
I1
aI6
aI10
aI8
aI7
aI10
aI15
aI16
aI17
aI13
aI15
aI15
aI15
aI14
aI13
aI17
aI18
aI16
aI15
aI16
aa(lp75
I3
aI7
aI7
aI12
aI9
aI11
aI9
aI8
aI10
aI7
aI11
aI9
aI10
aI15
aI13
aI10
aI14
aI13
aI11
aI10
aa(lp76
I2
aI6
aI9
aI4
aI5
aI9
aI7
aI12
aI11
aI10
aI13
aI15
aI12
aI12
aI14
aI14
aI14
aI15
aI14
aI15
aa(lp77
I6
aI4
aI8
aI6
aI9
aI10
aI18
aI14
aI15
aI18
aI14
aI17
aI17
aI14
aI13
aI18
aI15
aI18
aI18
aI13
aa(lp78
I2
aI7
aI5
aI12
aI8
aI14
aI15
aI15
aI17
aI18
aI16
aI18
aI18
aI13
aI15
aI16
aI18
aI14
aI17
aI18
aa(lp79
I4
aI4
aI3
aI4
aI4
aI4
aI2
aI5
aI8
aI9
aI8
aI10
aI14
aI10
aI12
aI15
aI13
aI16
aI16
aI17
aa(lp80
I4
aI2
aI1
aI5
aI1
aI3
aI8
aI5
aI5
aI11
aI11
aI11
aI15
aI10
aI12
aI14
aI14
aI13
aI12
aI14
aa(lp81
I6
aI2
aI4
aI5
aI9
aI5
aI9
aI5
aI11
aI11
aI12
aI11
aI11
aI14
aI14
aI17
aI18
aI16
aI14
aI15
aa(lp82
I4
aI5
aI8
aI5
aI9
aI10
aI8
aI14
aI14
aI18
aI14
aI18
aI15
aI13
aI17
aI17
aI15
aI15
aI18
aI18
aa(lp83
I2
aI8
aI5
aI8
aI10
aI13
aI17
aI18
aI17
aI17
aI13
aI17
aI15
aI13
aI15
aI17
aI18
aI17
aI15
aI16
aa(lp84
I4
aI1
aI3
aI6
aI5
aI8
aI7
aI7
aI10
aI10
aI12
aI7
aI9
aI9
aI10
aI17
aI13
aI15
aI15
aI17
aa(lp85
I1
aI2
aI3
aI2
aI4
aI8
aI9
aI11
aI13
aI15
aI11
aI12
aI13
aI10
aI15
aI11
aI15
aI10
aI12
aI13
aa(lp86
I3
aI6
aI6
aI5
aI5
aI7
aI4
aI10
aI7
aI7
aI12
aI10
aI10
aI13
aI15
aI16
aI13
aI14
aI15
aI14
aa(lp87
I3
aI4
aI1
aI4
aI8
aI9
aI7
aI8
aI10
aI12
aI12
aI10
aI12
aI14
aI12
aI14
aI18
aI18
aI16
aI17
aa(lp88
I1
aI4
aI7
aI11
aI8
aI7
aI7
aI11
aI7
aI14
aI14
aI10
aI15
aI13
aI17
aI13
aI18
aI14
aI13
aI13
aa(lp89
I4
aI2
aI7
aI5
aI6
aI6
aI12
aI10
aI8
aI14
aI12
aI12
aI14
aI12
aI15
aI14
aI14
aI18
aI15
aI14
aa(lp90
I1
aI7
aI4
aI11
aI15
aI13
aI10
aI13
aI13
aI10
aI12
aI11
aI14
aI15
aI17
aI13
aI16
aI16
aI18
aI13
aa(lp91
I4
aI1
aI1
aI2
aI5
aI4
aI11
aI15
aI13
aI10
aI15
aI11
aI15
aI14
aI16
aI14
aI14
aI17
aI17
aI17
aa(lp92
I3
aI5
aI3
aI7
aI6
aI8
aI7
aI10
aI11
aI10
aI11
aI12
aI12
aI7
aI14
aI10
aI13
aI14
aI13
aI10
aa(lp93
I1
aI7
aI10
aI8
aI12
aI9
aI8
aI7
aI12
aI15
aI11
aI14
aI17
aI15
aI13
aI14
aI16
aI18
aI18
aI14
aa(lp94
I3
aI3
aI4
aI11
aI11
aI13
aI12
aI10
aI16
aI18
aI17
aI13
aI14
aI14
aI14
aI13
aI17
aI18
aI16
aI18
aa(lp95
I4
aI7
aI9
aI8
aI7
aI9
aI7
aI10
aI10
aI10
aI13
aI14
aI10
aI10
aI11
aI13
aI14
aI13
aI14
aI16
aa(lp96
I2
aI4
aI6
aI12
aI7
aI7
aI7
aI12
aI14
aI12
aI10
aI14
aI17
aI16
aI13
aI18
aI14
aI17
aI18
aI17
aa(lp97
I1
aI4
aI4
aI7
aI11
aI13
aI17
aI16
aI13
aI15
aI17
aI14
aI13
aI15
aI14
aI17
aI13
aI14
aI13
aI18
aa(lp98
I1
aI7
aI6
aI4
aI6
aI4
aI11
aI9
aI15
aI14
aI13
aI18
aI14
aI13
aI17
aI17
aI18
aI16
aI15
aI14
aa(lp99
I6
aI5
aI5
aI10
aI12
aI12
aI15
aI18
aI15
aI15
aI15
aI13
aI18
aI15
aI17
aI18
aI18
aI16
aI16
aI18
aa(lp100
I5
aI4
aI1
aI8
aI4
aI7
aI11
aI12
aI10
aI12
aI12
aI9
aI9
aI12
aI15
aI18
aI13
aI15
aI17
aI14
aa(lp101
I4
aI3
aI5
aI6
aI8
aI5
aI4
aI6
aI10
aI15
aI10
aI13
aI15
aI17
aI15
aI16
aI17
aI13
aI13
aI13
aa(lp102
I3
aI3
aI1
aI4
aI4
aI5
aI9
aI5
aI11
aI11
aI9
aI8
aI9
aI12
aI11
aI12
aI14
aI11
aI11
aI15
aa(lp103
I1
aI6
aI7
aI8
aI7
aI7
aI10
aI12
aI14
aI14
aI12
aI11
aI14
aI10
aI14
aI15
aI17
aI16
aI15
aI13
aa(lp104
I1
aI4
aI1
aI9
aI10
aI11
aI7
aI11
aI9
aI7
aI10
aI14
aI18
aI15
aI15
aI15
aI15
aI17
aI18
aI16
aa(lp105
I2
aI3
aI6
aI2
aI6
aI7
aI8
aI8
aI4
aI11
aI8
aI11
aI12
aI11
aI8
aI9
aI11
aI10
aI8
aI7
aa(lp106
I5
aI4
aI7
aI4
aI7
aI8
aI10
aI10
aI11
aI15
aI10
aI11
aI10
aI14
aI16
aI16
aI17
aI18
aI13
aI17
aa(lp107
I6
aI4
aI11
aI10
aI10
aI13
aI11
aI11
aI13
aI17
aI18
aI16
aI16
aI16
aI15
aI13
aI13
aI18
aI16
aI18
aa(lp108
I4
aI4
aI9
aI5
aI9
aI7
aI11
aI9
aI11
aI15
aI15
aI10
aI11
aI13
aI15
aI15
aI17
aI15
aI14
aI18
aa(lp109
I6
aI1
aI2
aI3
aI9
aI5
aI8
aI8
aI12
aI12
aI7
aI12
aI8
aI13
aI16
aI15
aI15
aI14
aI17
aI15
aa(lp110
I6
aI6
aI7
aI10
aI13
aI12
aI14
aI15
aI15
aI15
aI13
aI10
aI15
aI10
aI11
aI12
aI13
aI18
aI13
aI14
aa(lp111
I1
aI1
aI7
aI6
aI9
aI13
aI10
aI18
aI13
aI16
aI16
aI17
aI17
aI15
aI17
aI18
aI15
aI14
aI18
aI18
aa(lp112
I3
aI3
aI1
aI6
aI4
aI12
aI12
aI10
aI18
aI13
aI14
aI14
aI17
aI14
aI14
aI13
aI18
aI17
aI18
aI18
aa(lp113
I2
aI4
aI8
aI9
aI11
aI9
aI11
aI8
aI11
aI9
aI15
aI14
aI10
aI11
aI14
aI12
aI11
aI10
aI14
aI16
aa(lp114
I5
aI2
aI1
aI5
aI9
aI10
aI8
aI11
aI11
aI7
aI12
aI15
aI12
aI14
aI18
aI15
aI18
aI14
aI17
aI18
aa(lp115
I4
aI7
aI11
aI10
aI8
aI12
aI8
aI8
aI14
aI11
aI10
aI12
aI11
aI14
aI13
aI15
aI15
aI13
aI15
aI14
aa(lp116
I5
aI5
aI5
aI8
aI9
aI8
aI5
aI6
aI10
aI12
aI12
aI12
aI7
aI11
aI10
aI10
aI9
aI10
aI12
aI14
aa(lp117
I2
aI9
aI9
aI5
aI7
aI10
aI16
aI18
aI17
aI15
aI18
aI17
aI13
aI17
aI15
aI18
aI13
aI13
aI13
aI15
aa(lp118
I2
aI5
aI1
aI5
aI7
aI5
aI8
aI15
aI13
aI14
aI14
aI10
aI13
aI14
aI16
aI16
aI13
aI17
aI14
aI15
aa(lp119
I3
aI8
aI12
aI11
aI15
aI13
aI13
aI18
aI16
aI17
aI14
aI18
aI13
aI16
aI18
aI15
aI18
aI18
aI13
aI13
aa(lp120
I6
aI7
aI5
aI12
aI12
aI12
aI11
aI10
aI14
aI10
aI12
aI10
aI14
aI17
aI14
aI14
aI18
aI15
aI17
aI15
aa(lp121
I1
aI5
aI7
aI7
aI4
aI9
aI7
aI10
aI12
aI12
aI14
aI12
aI12
aI10
aI14
aI11
aI12
aI13
aI11
aI12
aa(lp122
I1
aI9
aI4
aI10
aI12
aI13
aI15
aI14
aI16
aI16
aI16
aI14
aI15
aI15
aI14
aI14
aI16
aI15
aI14
aI17
aa(lp123
I2
aI2
aI5
aI6
aI9
aI15
aI10
aI10
aI16
aI15
aI17
aI17
aI13
aI15
aI14
aI15
aI16
aI13
aI18
aI14
aa(lp124
I3
aI8
aI11
aI14
aI13
aI10
aI11
aI14
aI17
aI13
aI13
aI14
aI17
aI13
aI16
aI15
aI13
aI13
aI17
aI16
aa(lp125
I5
aI4
aI6
aI8
aI11
aI9
aI13
aI15
aI11
aI15
aI15
aI15
aI10
aI15
aI15
aI13
aI16
aI13
aI18
aI16
aa(lp126
I1
aI2
aI1
aI8
aI11
aI7
aI9
aI7
aI12
aI9
aI10
aI8
aI11
aI14
aI15
aI18
aI18
aI14
aI16
aI15
aa(lp127
I3
aI7
aI10
aI10
aI12
aI7
aI12
aI14
aI15
aI12
aI11
aI13
aI11
aI13
aI13
aI17
aI13
aI16
aI16
aI13
aa(lp128
I6
aI9
aI8
aI7
aI9
aI12
aI7
aI7
aI9
aI12
aI9
aI11
aI18
aI14
aI16
aI17
aI18
aI13
aI16
aI15
aa(lp129
I5
aI5
aI6
aI9
aI7
aI7
aI12
aI12
aI15
aI12
aI12
aI15
aI11
aI14
aI15
aI11
aI17
aI18
aI14
aI14
aa(lp130
I4
aI2
aI7
aI12
aI9
aI12
aI12
aI8
aI12
aI7
aI10
aI10
aI9
aI7
aI9
aI9
aI10
aI15
aI13
aI14
aa(lp131
I2
aI5
aI5
aI3
aI1
aI7
aI4
aI9
aI5
aI8
aI11
aI8
aI9
aI10
aI18
aI17
aI15
aI17
aI17
aI14
aa(lp132
I3
aI6
aI8
aI10
aI14
aI14
aI17
aI17
aI16
aI15
aI14
aI15
aI17
aI13
aI18
aI18
aI15
aI16
aI13
aI16
aa(lp133
I1
aI7
aI6
aI12
aI11
aI15
aI10
aI15
aI17
aI14
aI13
aI17
aI14
aI18
aI13
aI13
aI13
aI13
aI16
aI14
aa(lp134
I5
aI5
aI2
aI2
aI5
aI4
aI6
aI8
aI10
aI10
aI11
aI7
aI7
aI11
aI10
aI15
aI18
aI14
aI13
aI14
aa(lp135
I2
aI4
aI11
aI10
aI10
aI12
aI11
aI12
aI15
aI14
aI14
aI17
aI17
aI17
aI13
aI14
aI15
aI15
aI14
aI16
aa(lp136
I6
aI4
aI2
aI5
aI6
aI9
aI11
aI7
aI13
aI13
aI15
aI18
aI17
aI18
aI15
aI14
aI17
aI15
aI17
aI15
aa(lp137
I3
aI4
aI5
aI2
aI4
aI3
aI5
aI5
aI11
aI7
aI9
aI8
aI8
aI7
aI14
aI12
aI15
aI14
aI11
aI17
aa(lp138
I5
aI8
aI9
aI8
aI11
aI8
aI9
aI10
aI9
aI11
aI12
aI9
aI7
aI12
aI12
aI11
aI12
aI8
aI12
aI18
aa(lp139
I2
aI5
aI6
aI9
aI12
aI12
aI11
aI12
aI15
aI17
aI17
aI16
aI14
aI15
aI13
aI15
aI14
aI14
aI17
aI13
aa(lp140
I3
aI6
aI7
aI7
aI11
aI10
aI15
aI15
aI11
aI15
aI11
aI11
aI12
aI10
aI15
aI17
aI14
aI16
aI13
aI17
aa(lp141
I6
aI2
aI4
aI9
aI8
aI9
aI8
aI11
aI10
aI14
aI12
aI13
aI14
aI14
aI14
aI14
aI13
aI13
aI13
aI15
aa(lp142
I3
aI1
aI6
aI7
aI11
aI8
aI9
aI12
aI12
aI17
aI16
aI18
aI17
aI13
aI15
aI18
aI18
aI15
aI16
aI18
aa(lp143
I4
aI7
aI8
aI7
aI7
aI12
aI11
aI13
aI18
aI16
aI18
aI16
aI16
aI14
aI14
aI15
aI15
aI16
aI13
aI13
aa(lp144
I6
aI6
aI7
aI7
aI10
aI9
aI10
aI9
aI8
aI11
aI10
aI12
aI11
aI14
aI10
aI12
aI18
aI18
aI15
aI13
aa(lp145
I4
aI7
aI7
aI9
aI11
aI11
aI13
aI18
aI13
aI18
aI15
aI16
aI14
aI17
aI14
aI14
aI13
aI18
aI14
aI18
aa(lp146
I6
aI9
aI7
aI9
aI14
aI10
aI11
aI11
aI13
aI14
aI16
aI16
aI16
aI16
aI14
aI18
aI17
aI15
aI13
aI18
aa(lp147
I5
aI2
aI8
aI7
aI14
aI11
aI15
aI14
aI13
aI14
aI14
aI15
aI17
aI13
aI13
aI14
aI16
aI13
aI15
aI15
aa(lp148
I1
aI8
aI9
aI7
aI8
aI9
aI9
aI8
aI11
aI7
aI7
aI7
aI9
aI10
aI11
aI15
aI14
aI11
aI18
aI13
aa(lp149
I6
aI3
aI2
aI4
aI8
aI10
aI11
aI12
aI14
aI12
aI16
aI13
aI13
aI18
aI16
aI18
aI15
aI13
aI13
aI15
aa(lp150
I3
aI6
aI7
aI11
aI10
aI15
aI10
aI15
aI12
aI14
aI15
aI14
aI14
aI10
aI15
aI12
aI10
aI16
aI17
aI13
aa(lp151
I5
aI8
aI8
aI8
aI9
aI8
aI7
aI8
aI10
aI9
aI8
aI12
aI12
aI9
aI15
aI11
aI16
aI18
aI15
aI14
aa(lp152
I4
aI7
aI9
aI11
aI10
aI8
aI7
aI10
aI9
aI8
aI7
aI8
aI10
aI9
aI14
aI12
aI10
aI10
aI13
aI14
aa(lp153
I2
aI6
aI8
aI9
aI8
aI7
aI10
aI9
aI12
aI15
aI11
aI14
aI15
aI10
aI13
aI14
aI18
aI17
aI17
aI17
aa(lp154
I1
aI6
aI7
aI11
aI12
aI12
aI10
aI8
aI11
aI11
aI7
aI11
aI12
aI12
aI12
aI14
aI10
aI13
aI15
aI14
aa(lp155
I5
aI5
aI9
aI11
aI11
aI13
aI15
aI14
aI18
aI14
aI15
aI18
aI17
aI14
aI15
aI17
aI15
aI16
aI14
aI14
aa(lp156
I1
aI8
aI10
aI11
aI12
aI9
aI8
aI11
aI16
aI17
aI15
aI16
aI17
aI13
aI16
aI13
aI13
aI16
aI15
aI14
aa(lp157
I2
aI9
aI9
aI11
aI10
aI10
aI14
aI14
aI12
aI18
aI15
aI13
aI16
aI18
aI13
aI17
aI14
aI18
aI15
aI14
aa(lp158
I4
aI5
aI4
aI5
aI10
aI8
aI8
aI12
aI16
aI17
aI16
aI13
aI15
aI13
aI16
aI14
aI16
aI14
aI18
aI18
aa(lp159
I2
aI4
aI7
aI12
aI7
aI7
aI11
aI7
aI10
aI12
aI11
aI7
aI7
aI10
aI15
aI14
aI18
aI13
aI13
aI15
aa(lp160
I4
aI6
aI1
aI4
aI8
aI5
aI12
aI9
aI10
aI10
aI11
aI13
aI15
aI15
aI17
aI13
aI16
aI13
aI18
aI13
aa(lp161
I4
aI9
aI6
aI8
aI12
aI14
aI11
aI14
aI15
aI14
aI15
aI14
aI14
aI13
aI17
aI17
aI17
aI17
aI18
aI18
aa(lp162
I1
aI3
aI7
aI7
aI7
aI10
aI12
aI10
aI7
aI8
aI15
aI13
aI13
aI17
aI18
aI13
aI18
aI18
aI18
aI14
aa(lp163
I1
aI9
aI9
aI12
aI11
aI11
aI9
aI10
aI11
aI9
aI10
aI14
aI14
aI15
aI12
aI17
aI18
aI18
aI13
aI18
aa(lp164
I2
aI1
aI6
aI7
aI12
aI7
aI11
aI10
aI14
aI13
aI13
aI12
aI13
aI14
aI18
aI18
aI15
aI18
aI17
aI16
aa(lp165
I3
aI6
aI9
aI7
aI9
aI11
aI7
aI9
aI12
aI10
aI16
aI17
aI17
aI18
aI13
aI13
aI14
aI18
aI14
aI14
aa(lp166
I3
aI9
aI12
aI9
aI14
aI14
aI10
aI13
aI12
aI15
aI16
aI15
aI17
aI17
aI16
aI17
aI17
aI14
aI13
aI18
aa(lp167
I1
aI6
aI6
aI10
aI12
aI12
aI8
aI8
aI10
aI12
aI12
aI13
aI17
aI18
aI16
aI17
aI13
aI18
aI18
aI15
aa(lp168
I3
aI3
aI4
aI6
aI9
aI5
aI9
aI12
aI8
aI8
aI10
aI8
aI10
aI8
aI14
aI11
aI16
aI16
aI13
aI14
aa(lp169
I3
aI4
aI9
aI8
aI14
aI14
aI11
aI12
aI15
aI15
aI14
aI17
aI14
aI15
aI16
aI14
aI16
aI18
aI17
aI14
aa(lp170
I3
aI6
aI8
aI10
aI18
aI17
aI18
aI14
aI17
aI14
aI16
aI18
aI16
aI15
aI16
aI15
aI17
aI14
aI16
aI18
aa(lp171
I6
aI6
aI8
aI7
aI7
aI10
aI12
aI10
aI11
aI7
aI7
aI11
aI9
aI14
aI10
aI10
aI11
aI13
aI17
aI15
aa(lp172
I2
aI4
aI6
aI12
aI12
aI14
aI11
aI15
aI11
aI10
aI10
aI11
aI12
aI11
aI13
aI13
aI15
aI16
aI16
aI16
aa(lp173
I3
aI5
aI11
aI13
aI11
aI15
aI10
aI10
aI16
aI17
aI16
aI17
aI16
aI15
aI18
aI16
aI18
aI17
aI15
aI17
aa(lp174
I2
aI4
aI5
aI7
aI8
aI10
aI11
aI11
aI15
aI18
aI15
aI14
aI15
aI15
aI17
aI17
aI18
aI16
aI18
aI15
aa(lp175
I3
aI4
aI7
aI9
aI8
aI7
aI9
aI7
aI15
aI13
aI17
aI13
aI16
aI17
aI15
aI16
aI18
aI16
aI14
aI14
aa(lp176
I5
aI3
aI6
aI4
aI10
aI10
aI10
aI14
aI11
aI12
aI12
aI14
aI12
aI15
aI15
aI15
aI18
aI18
aI13
aI14
aa(lp177
I5
aI3
aI2
aI1
aI9
aI9
aI4
aI10
aI7
aI12
aI9
aI9
aI15
aI11
aI13
aI17
aI18
aI15
aI17
aI16
aa(lp178
I2
aI1
aI9
aI9
aI10
aI8
aI9
aI12
aI8
aI13
aI14
aI16
aI14
aI18
aI17
aI18
aI14
aI15
aI15
aI16
aa(lp179
I3
aI7
aI5
aI7
aI4
aI5
aI6
aI6
aI9
aI7
aI11
aI15
aI13
aI10
aI12
aI14
aI14
aI10
aI15
aI12
aa(lp180
I4
aI5
aI4
aI7
aI9
aI5
aI11
aI12
aI15
aI12
aI11
aI15
aI18
aI16
aI14
aI16
aI16
aI17
aI18
aI18
aa(lp181
I1
aI5
aI11
aI10
aI7
aI11
aI10
aI12
aI10
aI13
aI10
aI12
aI13
aI14
aI13
aI16
aI14
aI13
aI15
aI15
aa(lp182
I6
aI7
aI11
aI12
aI13
aI14
aI12
aI11
aI14
aI15
aI13
aI15
aI17
aI13
aI13
aI15
aI16
aI13
aI16
aI15
aa(lp183
I2
aI5
aI4
aI9
aI6
aI10
aI10
aI11
aI9
aI14
aI13
aI14
aI13
aI10
aI13
aI14
aI14
aI15
aI13
aI16
aa(lp184
I5
aI5
aI6
aI7
aI8
aI8
aI6
aI9
aI8
aI7
aI9
aI10
aI13
aI10
aI15
aI15
aI13
aI13
aI12
aI15
aa(lp185
I1
aI2
aI8
aI8
aI13
aI15
aI15
aI10
aI11
aI15
aI14
aI14
aI15
aI10
aI10
aI15
aI13
aI10
aI10
aI15
aa(lp186
I6
aI9
aI8
aI11
aI15
aI14
aI14
aI16
aI16
aI14
aI15
aI13
aI16
aI18
aI13
aI14
aI17
aI15
aI16
aI13
aa(lp187
I6
aI7
aI7
aI4
aI11
aI9
aI13
aI13
aI15
aI14
aI12
aI13
aI12
aI11
aI14
aI12
aI13
aI11
aI14
aI14
aa(lp188
I6
aI6
aI8
aI6
aI7
aI6
aI4
aI7
aI7
aI9
aI8
aI10
aI9
aI7
aI9
aI15
aI12
aI12
aI13
aI15
aa(lp189
I4
aI6
aI9
aI5
aI6
aI7
aI12
aI7
aI11
aI15
aI11
aI15
aI10
aI13
aI18
aI17
aI16
aI13
aI17
aI13
aa(lp190
I1
aI4
aI5
aI9
aI10
aI10
aI10
aI11
aI11
aI10
aI13
aI14
aI14
aI12
aI13
aI13
aI17
aI17
aI16
aI13
aa(lp191
I1
aI7
aI8
aI8
aI12
aI9
aI10
aI10
aI11
aI14
aI15
aI12
aI15
aI10
aI15
aI16
aI15
aI16
aI14
aI13
aa(lp192
I5
aI3
aI6
aI4
aI4
aI12
aI9
aI10
aI11
aI13
aI18
aI16
aI17
aI15
aI17
aI13
aI18
aI18
aI18
aI13
aa(lp193
I4
aI8
aI8
aI8
aI5
aI6
aI10
aI12
aI11
aI10
aI8
aI9
aI8
aI9
aI7
aI8
aI7
aI12
aI11
aI7
aa(lp194
I3
aI4
aI7
aI6
aI5
aI5
aI4
aI8
aI12
aI18
aI13
aI14
aI17
aI13
aI16
aI17
aI16
aI18
aI17
aI16
aa(lp195
I3
aI6
aI5
aI5
aI5
aI7
aI9
aI7
aI9
aI10
aI11
aI12
aI10
aI11
aI10
aI14
aI18
aI13
aI15
aI17
aa(lp196
I5
aI2
aI6
aI6
aI4
aI9
aI7
aI5
aI7
aI7
aI9
aI11
aI12
aI11
aI8
aI7
aI12
aI10
aI7
aI11
aa(lp197
I2
aI5
aI9
aI7
aI6
aI7
aI7
aI10
aI11
aI15
aI14
aI14
aI14
aI14
aI15
aI15
aI17
aI15
aI13
aI13
aa(lp198
I3
aI3
aI7
aI6
aI6
aI7
aI8
aI7
aI14
aI10
aI14
aI15
aI13
aI16
aI16
aI18
aI13
aI14
aI17
aI15
aa(lp199
I5
aI7
aI6
aI11
aI8
aI11
aI9
aI10
aI10
aI15
aI10
aI14
aI18
aI16
aI14
aI16
aI15
aI16
aI13
aI18
aa(lp200
I6
aI5
aI8
aI10
aI12
aI12
aI13
aI14
aI13
aI17
aI15
aI18
aI16
aI15
aI17
aI16
aI18
aI15
aI17
aI18
aa(lp201
I4
aI5
aI9
aI9
aI8
aI6
aI8
aI4
aI12
aI13
aI10
aI13
aI11
aI15
aI16
aI17
aI17
aI18
aI15
aI14
aa(lp202
I6
aI5
aI5
aI8
aI8
aI14
aI15
aI14
aI18
aI14
aI13
aI13
aI18
aI15
aI17
aI18
aI15
aI14
aI16
aI16
aa(lp203
I5
aI5
aI4
aI7
aI7
aI14
aI10
aI13
aI16
aI17
aI13
aI14
aI14
aI15
aI14
aI15
aI15
aI16
aI13
aI17
aa(lp204
I4
aI3
aI2
aI2
aI5
aI8
aI8
aI11
aI11
aI9
aI7
aI12
aI12
aI12
aI8
aI12
aI11
aI11
aI12
aI15
aa(lp205
I4
aI3
aI6
aI7
aI6
aI7
aI11
aI15
aI15
aI13
aI13
aI13
aI16
aI15
aI17
aI15
aI17
aI18
aI17
aI14
aa(lp206
I3
aI1
aI2
aI4
aI6
aI2
aI8
aI10
aI11
aI7
aI12
aI8
aI12
aI9
aI10
aI15
aI18
aI13
aI15
aI14
aa(lp207
I4
aI4
aI3
aI7
aI8
aI11
aI9
aI11
aI12
aI7
aI12
aI14
aI10
aI17
aI18
aI15
aI18
aI18
aI15
aI15
aa(lp208
I1
aI4
aI5
aI4
aI8
aI10
aI12
aI12
aI10
aI17
aI16
aI15
aI16
aI17
aI18
aI16
aI14
aI18
aI13
aI13
aa(lp209
I1
aI6
aI12
aI8
aI11
aI13
aI11
aI13
aI10
aI14
aI14
aI18
aI16
aI13
aI13
aI13
aI14
aI15
aI18
aI13
aa(lp210
I2
aI9
aI5
aI8
aI7
aI10
aI7
aI10
aI14
aI17
aI18
aI16
aI17
aI15
aI17
aI17
aI15
aI16
aI14
aI18
aa(lp211
I5
aI9
aI4
aI7
aI4
aI6
aI8
aI10
aI10
aI7
aI7
aI14
aI12
aI12
aI15
aI11
aI14
aI14
aI15
aI14
aa(lp212
I6
aI3
aI4
aI6
aI9
aI5
aI8
aI10
aI10
aI12
aI14
aI17
aI13
aI15
aI14
aI14
aI17
aI15
aI17
aI18
aa(lp213
I3
aI3
aI2
aI4
aI6
aI5
aI5
aI6
aI6
aI7
aI8
aI4
aI8
aI6
aI4
aI12
aI10
aI10
aI10
aI15
aa(lp214
I6
aI4
aI1
aI4
aI2
aI3
aI2
aI1
aI1
aI1
aI6
aI8
aI9
aI8
aI6
aI5
aI8
aI9
aI9
aI5
aa(lp215
I2
aI6
aI5
aI6
aI7
aI9
aI12
aI12
aI10
aI8
aI7
aI8
aI7
aI9
aI7
aI10
aI10
aI10
aI15
aI18
aa(lp216
I3
aI4
aI7
aI10
aI12
aI11
aI12
aI14
aI10
aI10
aI13
aI15
aI14
aI14
aI17
aI18
aI18
aI15
aI18
aI16
aa(lp217
I1
aI8
aI4
aI10
aI12
aI10
aI16
aI18
aI13
aI16
aI15
aI15
aI18
aI13
aI15
aI16
aI15
aI16
aI15
aI18
aa(lp218
I4
aI3
aI1
aI3
aI5
aI5
aI7
aI7
aI10
aI12
aI14
aI14
aI15
aI15
aI13
aI13
aI16
aI18
aI17
aI17
aa(lp219
I4
aI4
aI3
aI8
aI9
aI10
aI7
aI12
aI11
aI12
aI11
aI10
aI14
aI11
aI16
aI18
aI16
aI16
aI17
aI13
aa(lp220
I3
aI8
aI6
aI9
aI9
aI9
aI13
aI13
aI10
aI13
aI13
aI15
aI12
aI14
aI14
aI12
aI15
aI11
aI13
aI15
aa(lp221
I1
aI6
aI9
aI7
aI8
aI10
aI13
aI14
aI15
aI13
aI10
aI12
aI10
aI18
aI14
aI13
aI14
aI13
aI14
aI13
aa(lp222
I3
aI5
aI2
aI2
aI4
aI5
aI4
aI5
aI5
aI8
aI6
aI7
aI11
aI10
aI11
aI15
aI12
aI15
aI12
aI10
aa(lp223
I6
aI5
aI4
aI7
aI10
aI9
aI12
aI12
aI9
aI9
aI12
aI7
aI9
aI9
aI11
aI11
aI7
aI12
aI7
aI10
aa(lp224
I6
aI4
aI7
aI11
aI9
aI14
aI13
aI10
aI12
aI13
aI13
aI14
aI11
aI12
aI12
aI11
aI15
aI16
aI15
aI13
aa(lp225
I4
aI4
aI5
aI9
aI7
aI10
aI8
aI8
aI9
aI10
aI8
aI14
aI10
aI15
aI10
aI18
aI16
aI15
aI13
aI15
aa(lp226
I6
aI6
aI12
aI10
aI11
aI12
aI11
aI9
aI11
aI10
aI8
aI10
aI10
aI9
aI9
aI13
aI10
aI12
aI15
aI12
aa(lp227
I4
aI1
aI4
aI2
aI8
aI4
aI8
aI12
aI7
aI7
aI11
aI10
aI12
aI8
aI7
aI10
aI9
aI9
aI8
aI11
aa(lp228
I4
aI4
aI10
aI13
aI17
aI16
aI16
aI15
aI15
aI13
aI13
aI14
aI18
aI18
aI15
aI18
aI14
aI16
aI14
aI17
aa(lp229
I2
aI7
aI7
aI10
aI12
aI7
aI10
aI7
aI11
aI11
aI10
aI11
aI15
aI18
aI15
aI17
aI15
aI18
aI18
aI15
aa(lp230
I3
aI3
aI8
aI8
aI7
aI5
aI9
aI8
aI9
aI7
aI15
aI11
aI14
aI14
aI13
aI10
aI14
aI11
aI15
aI16
aa(lp231
I2
aI2
aI1
aI8
aI9
aI11
aI9
aI12
aI12
aI14
aI15
aI16
aI17
aI16
aI15
aI14
aI16
aI16
aI15
aI15
aa(lp232
I3
aI4
aI12
aI11
aI11
aI14
aI14
aI13
aI14
aI18
aI13
aI13
aI13
aI15
aI14
aI14
aI15
aI18
aI18
aI16
aa(lp233
I3
aI2
aI3
aI7
aI4
aI8
aI7
aI11
aI12
aI10
aI10
aI11
aI14
aI15
aI13
aI15
aI13
aI18
aI13
aI18
aa(lp234
I4
aI6
aI5
aI9
aI9
aI11
aI13
aI16
aI13
aI13
aI17
aI14
aI15
aI16
aI14
aI17
aI17
aI13
aI16
aI14
aa(lp235
I4
aI6
aI1
aI2
aI7
aI6
aI10
aI12
aI14
aI15
aI14
aI15
aI18
aI17
aI14
aI18
aI14
aI15
aI13
aI15
aa(lp236
I3
aI6
aI6
aI10
aI11
aI8
aI10
aI7
aI10
aI9
aI10
aI10
aI15
aI13
aI15
aI10
aI17
aI18
aI16
aI17
aa(lp237
I5
aI9
aI7
aI12
aI10
aI8
aI12
aI7
aI12
aI15
aI13
aI11
aI10
aI10
aI11
aI18
aI16
aI14
aI15
aI16
aa(lp238
I1
aI4
aI4
aI9
aI9
aI9
aI11
aI7
aI10
aI12
aI12
aI14
aI15
aI16
aI16
aI17
aI18
aI17
aI18
aI17
aa(lp239
I2
aI5
aI8
aI10
aI11
aI7
aI11
aI15
aI12
aI18
aI16
aI13
aI18
aI16
aI16
aI18
aI13
aI16
aI18
aI17
aa(lp240
I2
aI5
aI7
aI6
aI6
aI7
aI11
aI12
aI14
aI11
aI11
aI15
aI15
aI14
aI14
aI14
aI16
aI13
aI14
aI16
aa(lp241
I1
aI6
aI12
aI9
aI10
aI13
aI15
aI17
aI16
aI13
aI15
aI13
aI13
aI14
aI14
aI13
aI18
aI15
aI18
aI13
aa(lp242
I6
aI6
aI10
aI10
aI13
aI12
aI15
aI15
aI18
aI18
aI14
aI14
aI14
aI17
aI16
aI18
aI13
aI17
aI18
aI14
aa(lp243
I4
aI8
aI10
aI13
aI15
aI10
aI10
aI13
aI14
aI14
aI13
aI12
aI15
aI16
aI18
aI14
aI13
aI16
aI13
aI16
aa(lp244
I3
aI3
aI8
aI7
aI6
aI7
aI6
aI12
aI7
aI11
aI8
aI12
aI8
aI10
aI11
aI9
aI11
aI8
aI10
aI15
aa(lp245
I1
aI6
aI7
aI10
aI14
aI17
aI13
aI15
aI18
aI17
aI14
aI15
aI18
aI18
aI13
aI13
aI13
aI14
aI18
aI14
aa(lp246
I1
aI6
aI7
aI9
aI11
aI10
aI12
aI11
aI11
aI13
aI12
aI11
aI12
aI11
aI11
aI18
aI16
aI13
aI18
aI15
aa(lp247
I3
aI4
aI9
aI12
aI7
aI8
aI12
aI14
aI11
aI15
aI13
aI11
aI14
aI11
aI16
aI15
aI13
aI18
aI17
aI15
aa(lp248
I3
aI6
aI6
aI7
aI9
aI5
aI9
aI9
aI9
aI15
aI14
aI13
aI11
aI13
aI14
aI14
aI18
aI14
aI15
aI13
aa(lp249
I3
aI1
aI6
aI5
aI6
aI4
aI4
aI9
aI7
aI6
aI11
aI9
aI10
aI12
aI8
aI9
aI14
aI15
aI15
aI14
aa(lp250
I2
aI7
aI12
aI11
aI15
aI14
aI16
aI15
aI17
aI14
aI17
aI15
aI17
aI15
aI16
aI17
aI15
aI13
aI13
aI18
aa(lp251
I4
aI4
aI8
aI8
aI10
aI15
aI13
aI17
aI14
aI18
aI17
aI14
aI16
aI14
aI14
aI14
aI16
aI17
aI15
aI16
aa(lp252
I3
aI5
aI9
aI8
aI12
aI11
aI13
aI15
aI13
aI15
aI14
aI14
aI17
aI15
aI17
aI17
aI16
aI13
aI15
aI13
aa(lp253
I6
aI8
aI12
aI7
aI8
aI12
aI10
aI12
aI10
aI7
aI8
aI14
aI15
aI14
aI11
aI12
aI18
aI14
aI14
aI17
aa(lp254
I3
aI6
aI7
aI13
aI17
aI13
aI13
aI15
aI15
aI18
aI13
aI18
aI13
aI17
aI14
aI15
aI15
aI14
aI17
aI17
aa(lp255
I3
aI2
aI3
aI4
aI11
aI14
aI13
aI11
aI14
aI12
aI10
aI13
aI17
aI18
aI15
aI17
aI14
aI14
aI13
aI18
aa(lp256
I5
aI5
aI6
aI1
aI6
aI5
aI4
aI3
aI2
aI2
aI6
aI7
aI4
aI7
aI11
aI14
aI15
aI13
aI17
aI14
aa(lp257
I1
aI4
aI7
aI11
aI11
aI7
aI11
aI10
aI11
aI13
aI18
aI16
aI17
aI15
aI15
aI14
aI15
aI14
aI17
aI17
aa(lp258
I1
aI5
aI8
aI8
aI10
aI7
aI10
aI9
aI7
aI7
aI12
aI12
aI9
aI10
aI15
aI15
aI16
aI16
aI17
aI18
aa(lp259
I5
aI4
aI3
aI4
aI9
aI7
aI9
aI4
aI4
aI9
aI7
aI9
aI9
aI11
aI10
aI11
aI11
aI13
aI14
aI15
aa(lp260
I4
aI3
aI5
aI7
aI14
aI10
aI15
aI15
aI14
aI14
aI17
aI15
aI13
aI13
aI17
aI14
aI18
aI18
aI15
aI14
aa(lp261
I4
aI2
aI2
aI7
aI8
aI8
aI4
aI9
aI10
aI12
aI12
aI11
aI15
aI11
aI10
aI16
aI16
aI13
aI14
aI16
aa(lp262
I1
aI9
aI9
aI12
aI11
aI15
aI17
aI17
aI18
aI16
aI15
aI16
aI16
aI18
aI15
aI16
aI14
aI15
aI16
aI13
aa(lp263
I2
aI3
aI4
aI4
aI9
aI9
aI10
aI12
aI17
aI18
aI16
aI17
aI13
aI15
aI16
aI13
aI14
aI18
aI16
aI17
aa(lp264
I6
aI5
aI7
aI11
aI10
aI15
aI10
aI12
aI13
aI13
aI14
aI17
aI13
aI13
aI18
aI16
aI14
aI15
aI18
aI15
aa(lp265
I2
aI8
aI5
aI7
aI12
aI7
aI10
aI7
aI7
aI7
aI10
aI8
aI12
aI8
aI9
aI7
aI9
aI10
aI10
aI12
aa(lp266
I1
aI3
aI3
aI3
aI5
aI5
aI7
aI6
aI7
aI14
aI13
aI14
aI15
aI10
aI10
aI12
aI13
aI13
aI10
aI11
aa(lp267
I4
aI5
aI8
aI7
aI8
aI9
aI8
aI7
aI12
aI11
aI12
aI13
aI17
aI16
aI14
aI13
aI17
aI15
aI13
aI14
aa(lp268
I6
aI6
aI5
aI9
aI10
aI14
aI18
aI13
aI18
aI17
aI16
aI18
aI13
aI13
aI16
aI13
aI13
aI13
aI18
aI13
aa(lp269
I4
aI4
aI12
aI9
aI8
aI8
aI12
aI12
aI10
aI12
aI18
aI16
aI18
aI17
aI17
aI18
aI17
aI18
aI13
aI15
aa(lp270
I5
aI2
aI8
aI5
aI7
aI10
aI9
aI15
aI11
aI17
aI14
aI14
aI15
aI15
aI15
aI18
aI13
aI17
aI18
aI14
aa(lp271
I3
aI8
aI5
aI4
aI11
aI12
aI9
aI10
aI12
aI9
aI9
aI15
aI15
aI14
aI16
aI18
aI17
aI16
aI15
aI15
aa(lp272
I5
aI4
aI2
aI7
aI7
aI6
aI8
aI12
aI10
aI14
aI17
aI13
aI14
aI17
aI13
aI16
aI14
aI13
aI14
aI18
aa(lp273
I2
aI9
aI7
aI5
aI8
aI10
aI9
aI13
aI15
aI15
aI16
aI17
aI17
aI15
aI14
aI13
aI14
aI16
aI16
aI18
aa(lp274
I4
aI9
aI5
aI9
aI9
aI5
aI10
aI10
aI9
aI12
aI10
aI11
aI15
aI18
aI13
aI18
aI13
aI14
aI14
aI13
aa(lp275
I5
aI2
aI6
aI7
aI4
aI5
aI11
aI8
aI11
aI13
aI10
aI11
aI13
aI15
aI14
aI18
aI17
aI13
aI13
aI16
aa(lp276
I2
aI9
aI5
aI7
aI12
aI11
aI10
aI15
aI13
aI18
aI18
aI18
aI14
aI18
aI16
aI17
aI15
aI16
aI13
aI13
aa(lp277
I5
aI5
aI6
aI12
aI10
aI14
aI13
aI11
aI10
aI13
aI12
aI14
aI13
aI11
aI11
aI16
aI18
aI18
aI13
aI14
aa(lp278
I5
aI5
aI6
aI11
aI9
aI12
aI11
aI12
aI11
aI9
aI7
aI12
aI13
aI12
aI10
aI12
aI14
aI15
aI13
aI18
aa(lp279
I6
aI6
aI11
aI7
aI11
aI7
aI7
aI12
aI11
aI8
aI7
aI12
aI12
aI11
aI15
aI11
aI15
aI16
aI18
aI16
aa(lp280
I1
aI5
aI3
aI3
aI8
aI7
aI5
aI4
aI7
aI10
aI10
aI10
aI12
aI14
aI14
aI10
aI10
aI12
aI14
aI18
aa(lp281
I1
aI3
aI4
aI4
aI9
aI8
aI12
aI7
aI13
aI13
aI17
aI18
aI15
aI14
aI16
aI18
aI14
aI15
aI16
aI15
aa(lp282
I5
aI4
aI9
aI4
aI7
aI10
aI10
aI9
aI14
aI16
aI16
aI15
aI15
aI16
aI18
aI18
aI13
aI17
aI16
aI13
aa(lp283
I3
aI2
aI2
aI6
aI8
aI9
aI7
aI12
aI12
aI11
aI11
aI10
aI13
aI10
aI14
aI14
aI18
aI14
aI16
aI17
aa(lp284
I4
aI2
aI7
aI4
aI12
aI12
aI10
aI10
aI10
aI11
aI10
aI13
aI11
aI13
aI13
aI18
aI16
aI15
aI15
aI18
aa(lp285
I4
aI6
aI9
aI10
aI11
aI13
aI13
aI14
aI17
aI17
aI15
aI17
aI13
aI14
aI15
aI13
aI15
aI16
aI13
aI17
aa(lp286
I3
aI6
aI3
aI3
aI1
aI6
aI8
aI9
aI11
aI11
aI7
aI13
aI14
aI13
aI11
aI15
aI14
aI12
aI15
aI15
aa(lp287
I6
aI6
aI8
aI6
aI11
aI11
aI11
aI13
aI18
aI16
aI14
aI15
aI13
aI14
aI15
aI13
aI13
aI18
aI18
aI17
aa(lp288
I6
aI7
aI6
aI7
aI8
aI8
aI8
aI9
aI15
aI10
aI11
aI18
aI17
aI17
aI18
aI17
aI17
aI13
aI14
aI15
aa(lp289
I5
aI4
aI6
aI7
aI12
aI9
aI9
aI15
aI15
aI14
aI15
aI18
aI18
aI15
aI15
aI16
aI16
aI14
aI16
aI16
aa(lp290
I1
aI9
aI8
aI7
aI10
aI15
aI16
aI17
aI15
aI14
aI13
aI18
aI14
aI13
aI16
aI18
aI17
aI15
aI14
aI18
aa(lp291
I1
aI6
aI2
aI2
aI2
aI8
aI4
aI10
aI9
aI14
aI14
aI16
aI14
aI18
aI13
aI14
aI17
aI15
aI13
aI15
aa(lp292
I5
aI5
aI7
aI8
aI12
aI7
aI12
aI10
aI10
aI10
aI12
aI13
aI13
aI13
aI10
aI10
aI14
aI10
aI12
aI12
aa(lp293
I2
aI6
aI9
aI6
aI10
aI11
aI11
aI12
aI13
aI18
aI17
aI14
aI14
aI17
aI16
aI16
aI16
aI15
aI15
aI18
aa(lp294
I5
aI3
aI1
aI8
aI8
aI8
aI11
aI10
aI12
aI9
aI9
aI7
aI8
aI11
aI8
aI11
aI11
aI11
aI11
aI16
aa(lp295
I3
aI2
aI4
aI7
aI8
aI6
aI7
aI6
aI4
aI5
aI8
aI4
aI9
aI5
aI11
aI8
aI7
aI12
aI10
aI14
aa(lp296
I4
aI5
aI2
aI5
aI9
aI8
aI10
aI9
aI8
aI12
aI7
aI9
aI10
aI8
aI14
aI10
aI11
aI11
aI12
aI15
aa(lp297
I4
aI1
aI6
aI6
aI9
aI11
aI8
aI8
aI10
aI11
aI11
aI15
aI10
aI10
aI12
aI15
aI10
aI14
aI11
aI16
aa(lp298
I5
aI1
aI5
aI4
aI7
aI11
aI14
aI15
aI18
aI18
aI18
aI16
aI18
aI13
aI13
aI15
aI15
aI13
aI13
aI14
aa(lp299
I3
aI4
aI7
aI10
aI12
aI13
aI14
aI17
aI17
aI16
aI15
aI14
aI13
aI15
aI15
aI15
aI18
aI18
aI14
aI18
aa(lp300
I3
aI6
aI4
aI8
aI11
aI10
aI12
aI14
aI13
aI10
aI13
aI13
aI14
aI13
aI12
aI12
aI12
aI16
aI13
aI16
aa(lp301
I1
aI8
aI8
aI8
aI7
aI12
aI15
aI11
aI11
aI11
aI12
aI10
aI11
aI10
aI12
aI11
aI14
aI14
aI14
aI11
aa(lp302
I6
aI3
aI5
aI1
aI7
aI11
aI11
aI13
aI12
aI10
aI17
aI16
aI15
aI14
aI14
aI13
aI16
aI13
aI18
aI15
aa(lp303
I6
aI9
aI8
aI10
aI14
aI11
aI15
aI18
aI13
aI16
aI17
aI13
aI13
aI15
aI14
aI13
aI16
aI13
aI17
aI13
aa(lp304
I1
aI4
aI4
aI8
aI8
aI11
aI12
aI15
aI15
aI14
aI13
aI16
aI14
aI13
aI17
aI14
aI14
aI18
aI18
aI17
aa(lp305
I5
aI8
aI9
aI9
aI10
aI11
aI12
aI16
aI16
aI16
aI17
aI16
aI14
aI16
aI13
aI17
aI17
aI16
aI14
aI13
aa(lp306
I6
aI4
aI7
aI4
aI5
aI10
aI12
aI12
aI13
aI15
aI14
aI18
aI17
aI18
aI13
aI16
aI14
aI18
aI18
aI16
aa(lp307
I1
aI6
aI2
aI2
aI4
aI5
aI11
aI12
aI12
aI7
aI9
aI10
aI9
aI10
aI11
aI14
aI15
aI14
aI14
aI13
aa(lp308
I4
aI8
aI10
aI11
aI10
aI10
aI10
aI9
aI9
aI9
aI12
aI8
aI9
aI9
aI10
aI12
aI15
aI15
aI11
aI14
aa(lp309
I6
aI4
aI8
aI8
aI7
aI15
aI14
aI14
aI16
aI16
aI18
aI17
aI14
aI17
aI18
aI18
aI17
aI15
aI15
aI14
aa(lp310
I2
aI9
aI9
aI11
aI10
aI12
aI14
aI14
aI14
aI15
aI14
aI13
aI14
aI14
aI15
aI14
aI16
aI18
aI15
aI17
aa(lp311
I1
aI4
aI6
aI7
aI5
aI7
aI5
aI9
aI6
aI7
aI10
aI15
aI11
aI15
aI17
aI15
aI14
aI13
aI18
aI18
aa(lp312
I1
aI5
aI12
aI8
aI10
aI15
aI12
aI17
aI18
aI17
aI17
aI15
aI16
aI18
aI13
aI13
aI16
aI15
aI15
aI14
aa(lp313
I3
aI9
aI7
aI9
aI7
aI13
aI13
aI12
aI15
aI11
aI10
aI13
aI15
aI15
aI14
aI18
aI15
aI18
aI13
aI16
aa(lp314
I3
aI6
aI1
aI2
aI2
aI8
aI9
aI11
aI10
aI7
aI9
aI8
aI8
aI10
aI7
aI12
aI15
aI15
aI10
aI15
aa(lp315
I3
aI6
aI8
aI4
aI5
aI5
aI7
aI5
aI6
aI9
aI11
aI11
aI10
aI10
aI11
aI11
aI10
aI15
aI10
aI14
aa(lp316
I6
aI3
aI7
aI8
aI7
aI9
aI10
aI11
aI11
aI13
aI13
aI14
aI13
aI15
aI13
aI17
aI16
aI14
aI14
aI16
aa(lp317
I3
aI1
aI1
aI4
aI7
aI10
aI7
aI11
aI7
aI11
aI9
aI10
aI10
aI9
aI11
aI7
aI9
aI8
aI9
aI13
aa(lp318
I2
aI1
aI6
aI6
aI8
aI9
aI11
aI8
aI9
aI15
aI15
aI11
aI12
aI11
aI14
aI13
aI16
aI18
aI18
aI16
aa(lp319
I4
aI9
aI12
aI12
aI12
aI10
aI12
aI10
aI15
aI12
aI11
aI14
aI13
aI13
aI14
aI12
aI13
aI15
aI17
aI17
aa(lp320
I4
aI7
aI9
aI12
aI11
aI11
aI12
aI10
aI11
aI15
aI13
aI16
aI15
aI15
aI13
aI16
aI15
aI15
aI15
aI18
aa(lp321
I1
aI2
aI4
aI5
aI7
aI7
aI12
aI7
aI12
aI7
aI12
aI10
aI12
aI15
aI14
aI11
aI13
aI14
aI10
aI10
aa(lp322
I5
aI4
aI10
aI13
aI10
aI10
aI16
aI13
aI16
aI18
aI14
aI13
aI18
aI16
aI14
aI13
aI13
aI18
aI14
aI18
aa(lp323
I4
aI6
aI9
aI7
aI9
aI8
aI10
aI8
aI15
aI18
aI14
aI16
aI15
aI17
aI14
aI18
aI16
aI17
aI13
aI17
aa(lp324
I5
aI6
aI6
aI6
aI8
aI9
aI12
aI12
aI11
aI11
aI15
aI13
aI15
aI14
aI14
aI16
aI18
aI15
aI17
aI14
aa(lp325
I3
aI5
aI5
aI9
aI9
aI9
aI8
aI9
aI10
aI7
aI10
aI12
aI14
aI10
aI10
aI15
aI10
aI16
aI17
aI13
aa(lp326
I6
aI8
aI7
aI12
aI8
aI10
aI18
aI14
aI16
aI14
aI17
aI14
aI14
aI18
aI18
aI13
aI18
aI14
aI15
aI18
aa(lp327
I6
aI5
aI8
aI9
aI8
aI9
aI11
aI7
aI10
aI12
aI8
aI7
aI11
aI15
aI16
aI18
aI14
aI17
aI17
aI14
aa(lp328
I6
aI5
aI4
aI8
aI10
aI9
aI12
aI11
aI12
aI16
aI13
aI17
aI17
aI16
aI13
aI15
aI15
aI13
aI18
aI17
aa(lp329
I6
aI5
aI7
aI11
aI12
aI8
aI11
aI10
aI14
aI10
aI15
aI14
aI14
aI14
aI16
aI15
aI14
aI17
aI17
aI15
aa(lp330
I6
aI4
aI11
aI10
aI12
aI13
aI13
aI14
aI14
aI14
aI17
aI14
aI18
aI16
aI16
aI17
aI18
aI15
aI15
aI14
aa(lp331
I5
aI8
aI5
aI7
aI7
aI9
aI12
aI10
aI7
aI12
aI8
aI15
aI15
aI12
aI17
aI18
aI14
aI16
aI16
aI16
aa(lp332
I1
aI6
aI4
aI7
aI8
aI10
aI8
aI10
aI10
aI10
aI8
aI7
aI12
aI10
aI10
aI13
aI13
aI13
aI16
aI17
aa(lp333
I2
aI6
aI5
aI8
aI10
aI11
aI7
aI11
aI11
aI18
aI13
aI18
aI17
aI18
aI16
aI14
aI18
aI15
aI16
aI16
aa(lp334
I3
aI8
aI8
aI10
aI12
aI12
aI13
aI14
aI13
aI18
aI13
aI14
aI16
aI15
aI13
aI17
aI13
aI13
aI17
aI15
aa(lp335
I1
aI2
aI5
aI12
aI7
aI9
aI12
aI10
aI14
aI13
aI16
aI16
aI16
aI18
aI13
aI15
aI14
aI15
aI17
aI13
aa(lp336
I4
aI2
aI2
aI7
aI4
aI9
aI6
aI8
aI10
aI8
aI12
aI10
aI12
aI12
aI11
aI11
aI15
aI14
aI12
aI15
aa(lp337
I5
aI7
aI5
aI4
aI9
aI12
aI11
aI10
aI11
aI11
aI13
aI18
aI16
aI15
aI15
aI13
aI18
aI13
aI17
aI16
aa(lp338
I4
aI7
aI8
aI8
aI10
aI12
aI13
aI11
aI15
aI17
aI14
aI16
aI14
aI13
aI18
aI17
aI13
aI14
aI16
aI13
aa(lp339
I3
aI8
aI4
aI9
aI7
aI12
aI12
aI11
aI14
aI15
aI15
aI18
aI13
aI17
aI14
aI16
aI16
aI13
aI17
aI16
aa(lp340
I3
aI2
aI9
aI9
aI9
aI10
aI7
aI7
aI10
aI10
aI11
aI12
aI9
aI11
aI7
aI11
aI12
aI14
aI10
aI13
aa(lp341
I6
aI8
aI4
aI7
aI11
aI9
aI11
aI10
aI14
aI15
aI14
aI18
aI17
aI17
aI17
aI17
aI14
aI18
aI13
aI14
aa(lp342
I6
aI6
aI10
aI14
aI14
aI15
aI15
aI15
aI17
aI14
aI17
aI16
aI16
aI17
aI18
aI13
aI14
aI15
aI15
aI17
aa(lp343
I1
aI8
aI6
aI4
aI8
aI10
aI7
aI10
aI15
aI11
aI10
aI15
aI10
aI13
aI15
aI14
aI13
aI10
aI15
aI18
aa(lp344
I5
aI4
aI6
aI9
aI9
aI12
aI12
aI9
aI10
aI12
aI11
aI18
aI15
aI15
aI14
aI16
aI13
aI13
aI15
aI18
aa(lp345
I3
aI7
aI5
aI8
aI12
aI12
aI15
aI17
aI14
aI16
aI16
aI18
aI15
aI14
aI15
aI16
aI18
aI15
aI15
aI15
aa(lp346
I2
aI5
aI4
aI5
aI7
aI11
aI9
aI11
aI13
aI14
aI15
aI12
aI13
aI10
aI15
aI14
aI14
aI18
aI14
aI17
aa(lp347
I2
aI9
aI7
aI8
aI10
aI15
aI14
aI11
aI11
aI13
aI12
aI11
aI13
aI17
aI13
aI14
aI17
aI18
aI17
aI16
aa(lp348
I2
aI8
aI8
aI9
aI10
aI10
aI15
aI13
aI14
aI18
aI15
aI15
aI14
aI16
aI18
aI17
aI18
aI13
aI18
aI17
aa(lp349
I1
aI7
aI8
aI11
aI7
aI8
aI15
aI18
aI16
aI16
aI18
aI17
aI17
aI13
aI15
aI16
aI13
aI14
aI18
aI15
aa(lp350
I4
aI9
aI8
aI8
aI10
aI10
aI7
aI8
aI13
aI15
aI15
aI11
aI15
aI11
aI11
aI15
aI17
aI14
aI17
aI18
aa(lp351
I2
aI3
aI5
aI2
aI8
aI6
aI12
aI14
aI10
aI10
aI14
aI12
aI15
aI13
aI17
aI18
aI17
aI14
aI16
aI18
aa(lp352
I2
aI2
aI5
aI9
aI7
aI9
aI7
aI10
aI11
aI16
aI18
aI14
aI16
aI18
aI14
aI16
aI15
aI17
aI17
aI15
aa(lp353
I2
aI1
aI4
aI8
aI8
aI10
aI8
aI11
aI11
aI10
aI15
aI10
aI13
aI11
aI11
aI13
aI14
aI10
aI14
aI15
aa(lp354
I5
aI7
aI4
aI8
aI9
aI10
aI12
aI8
aI10
aI7
aI8
aI8
aI12
aI13
aI14
aI16
aI15
aI15
aI15
aI17
aa(lp355
I2
aI3
aI7
aI8
aI7
aI9
aI15
aI14
aI14
aI16
aI17
aI16
aI18
aI18
aI17
aI16
aI17
aI16
aI15
aI17
aa(lp356
I1
aI6
aI9
aI12
aI12
aI11
aI14
aI16
aI13
aI15
aI17
aI16
aI13
aI13
aI14
aI14
aI13
aI13
aI17
aI13
aa(lp357
I2
aI5
aI5
aI12
aI7
aI7
aI15
aI14
aI14
aI13
aI16
aI15
aI15
aI13
aI15
aI13
aI17
aI18
aI14
aI16
aa(lp358
I4
aI5
aI4
aI8
aI9
aI11
aI10
aI13
aI13
aI15
aI11
aI11
aI12
aI12
aI14
aI12
aI13
aI15
aI14
aI14
aa(lp359
I3
aI4
aI5
aI9
aI8
aI10
aI9
aI8
aI10
aI7
aI10
aI12
aI11
aI16
aI14
aI18
aI15
aI15
aI15
aI18
aa(lp360
I6
aI7
aI8
aI5
aI11
aI9
aI7
aI11
aI15
aI10
aI15
aI12
aI13
aI12
aI18
aI15
aI15
aI15
aI17
aI15
aa(lp361
I1
aI6
aI4
aI8
aI7
aI7
aI8
aI12
aI11
aI8
aI10
aI12
aI12
aI10
aI8
aI9
aI11
aI7
aI10
aI7
aa(lp362
I6
aI5
aI10
aI9
aI8
aI7
aI7
aI12
aI11
aI13
aI15
aI18
aI15
aI13
aI13
aI14
aI16
aI13
aI16
aI17
aa(lp363
I3
aI2
aI2
aI3
aI4
aI4
aI2
aI4
aI12
aI11
aI10
aI12
aI13
aI10
aI16
aI16
aI18
aI13
aI16
aI16
aa(lp364
I1
aI3
aI9
aI4
aI4
aI7
aI9
aI9
aI12
aI11
aI10
aI11
aI11
aI10
aI14
aI12
aI11
aI12
aI15
aI16
aa(lp365
I1
aI6
aI4
aI4
aI5
aI5
aI7
aI8
aI12
aI10
aI9
aI12
aI13
aI11
aI13
aI18
aI14
aI14
aI13
aI15
aa(lp366
I6
aI4
aI4
aI9
aI11
aI11
aI10
aI16
aI18
aI14
aI18
aI15
aI13
aI18
aI14
aI15
aI18
aI15
aI17
aI15
aa(lp367
I6
aI2
aI7
aI9
aI12
aI9
aI9
aI8
aI9
aI8
aI8
aI7
aI8
aI10
aI18
aI14
aI16
aI16
aI15
aI16
aa(lp368
I1
aI6
aI5
aI1
aI1
aI2
aI6
aI4
aI10
aI7
aI9
aI8
aI11
aI13
aI16
aI15
aI17
aI17
aI13
aI17
aa(lp369
I1
aI6
aI1
aI3
aI4
aI1
aI7
aI12
aI7
aI10
aI14
aI13
aI15
aI14
aI17
aI16
aI15
aI14
aI17
aI18
aa(lp370
I2
aI5
aI7
aI9
aI9
aI12
aI11
aI7
aI12
aI8
aI9
aI9
aI10
aI10
aI11
aI12
aI10
aI15
aI11
aI14
aa(lp371
I5
aI9
aI4
aI12
aI11
aI11
aI9
aI12
aI12
aI15
aI15
aI13
aI13
aI18
aI16
aI18
aI17
aI18
aI17
aI14
aa(lp372
I3
aI3
aI5
aI9
aI10
aI11
aI11
aI10
aI14
aI12
aI12
aI16
aI17
aI13
aI18
aI15
aI14
aI15
aI17
aI14
aa(lp373
I3
aI8
aI7
aI10
aI7
aI9
aI8
aI12
aI8
aI9
aI11
aI7
aI10
aI14
aI16
aI15
aI17
aI17
aI16
aI13
aa(lp374
I4
aI5
aI4
aI7
aI12
aI11
aI11
aI8
aI8
aI14
aI12
aI12
aI17
aI16
aI17
aI14
aI17
aI18
aI17
aI17
aa(lp375
I2
aI3
aI4
aI7
aI11
aI13
aI17
aI16
aI17
aI18
aI13
aI18
aI17
aI17
aI13
aI16
aI16
aI14
aI13
aI13
aa(lp376
I6
aI3
aI1
aI8
aI9
aI7
aI7
aI9
aI10
aI11
aI15
aI11
aI12
aI11
aI11
aI14
aI12
aI10
aI15
aI18
aa(lp377
I2
aI4
aI5
aI6
aI9
aI11
aI12
aI8
aI10
aI7
aI12
aI9
aI10
aI11
aI16
aI13
aI17
aI14
aI13
aI15
aa(lp378
I5
aI7
aI10
aI11
aI12
aI11
aI15
aI12
aI12
aI14
aI17
aI13
aI13
aI15
aI17
aI13
aI14
aI14
aI15
aI16
aa(lp379
I5
aI9
aI5
aI12
aI11
aI18
aI17
aI16
aI16
aI15
aI18
aI13
aI14
aI14
aI14
aI14
aI16
aI14
aI18
aI15
aa(lp380
I4
aI9
aI7
aI8
aI8
aI9
aI12
aI10
aI14
aI15
aI11
aI17
aI13
aI17
aI14
aI15
aI14
aI15
aI18
aI13
aa(lp381
I2
aI5
aI4
aI9
aI6
aI6
aI5
aI4
aI5
aI8
aI10
aI12
aI12
aI14
aI17
aI16
aI17
aI16
aI15
aI17
aa(lp382
I4
aI9
aI9
aI8
aI7
aI14
aI15
aI14
aI14
aI18
aI18
aI14
aI14
aI14
aI17
aI17
aI17
aI14
aI17
aI15
aa(lp383
I6
aI2
aI4
aI7
aI9
aI8
aI10
aI10
aI16
aI13
aI13
aI18
aI18
aI14
aI15
aI18
aI13
aI16
aI14
aI14
aa(lp384
I4
aI1
aI5
aI3
aI4
aI4
aI11
aI7
aI11
aI13
aI14
aI10
aI12
aI17
aI15
aI13
aI18
aI14
aI14
aI16
aa(lp385
I5
aI1
aI5
aI4
aI5
aI2
aI6
aI1
aI5
aI6
aI12
aI7
aI7
aI9
aI11
aI10
aI10
aI10
aI11
aI15
aa(lp386
I3
aI4
aI5
aI7
aI5
aI4
aI6
aI5
aI8
aI11
aI9
aI12
aI12
aI11
aI11
aI14
aI15
aI13
aI18
aI16
aa(lp387
I1
aI4
aI5
aI5
aI1
aI3
aI4
aI5
aI10
aI12
aI11
aI14
aI11
aI13
aI17
aI16
aI17
aI13
aI14
aI18
aa(lp388
I3
aI4
aI8
aI11
aI8
aI11
aI13
aI13
aI14
aI13
aI15
aI15
aI16
aI16
aI13
aI18
aI15
aI18
aI17
aI16
aa(lp389
I5
aI4
aI8
aI8
aI10
aI12
aI10
aI11
aI13
aI12
aI15
aI18
aI16
aI16
aI15
aI16
aI13
aI15
aI17
aI17
aa(lp390
I5
aI1
aI5
aI8
aI9
aI12
aI15
aI10
aI13
aI14
aI12
aI14
aI14
aI18
aI16
aI16
aI14
aI14
aI15
aI16
aa(lp391
I1
aI8
aI9
aI11
aI17
aI17
aI14
aI17
aI17
aI18
aI17
aI13
aI13
aI14
aI16
aI18
aI14
aI13
aI17
aI14
aa(lp392
I5
aI9
aI9
aI8
aI12
aI7
aI10
aI11
aI10
aI14
aI18
aI13
aI17
aI16
aI13
aI16
aI14
aI17
aI18
aI14
aa(lp393
I1
aI7
aI12
aI7
aI8
aI10
aI9
aI8
aI9
aI8
aI10
aI15
aI13
aI17
aI17
aI16
aI16
aI17
aI14
aI17
aa(lp394
I4
aI6
aI3
aI5
aI4
aI9
aI11
aI10
aI12
aI13
aI14
aI12
aI10
aI16
aI16
aI15
aI15
aI15
aI15
aI18
aa(lp395
I3
aI7
aI8
aI10
aI9
aI8
aI10
aI13
aI10
aI10
aI13
aI11
aI15
aI14
aI11
aI11
aI15
aI15
aI15
aI16
aa(lp396
I5
aI6
aI8
aI9
aI7
aI9
aI12
aI11
aI12
aI12
aI15
aI15
aI16
aI14
aI18
aI16
aI16
aI15
aI18
aI15
aa(lp397
I2
aI2
aI6
aI5
aI4
aI12
aI10
aI12
aI11
aI15
aI11
aI14
aI14
aI15
aI14
aI15
aI13
aI18
aI17
aI17
aa(lp398
I3
aI7
aI9
aI5
aI7
aI5
aI7
aI6
aI8
aI4
aI8
aI11
aI9
aI13
aI15
aI15
aI14
aI14
aI16
aI15
aa(lp399
I3
aI6
aI8
aI10
aI11
aI13
aI14
aI13
aI16
aI18
aI18
aI14
aI15
aI17
aI18
aI16
aI13
aI16
aI17
aI16
aa(lp400
I6
aI9
aI8
aI8
aI7
aI9
aI14
aI13
aI10
aI11
aI15
aI14
aI16
aI17
aI18
aI14
aI18
aI17
aI16
aI17
aa(lp401
I2
aI1
aI4
aI12
aI10
aI11
aI10
aI13
aI13
aI15
aI13
aI18
aI14
aI16
aI13
aI16
aI16
aI13
aI17
aI13
aa(lp402
I3
aI6
aI7
aI14
aI12
aI15
aI13
aI10
aI12
aI15
aI13
aI13
aI18
aI13
aI16
aI15
aI17
aI17
aI14
aI15
aa(lp403
I5
aI9
aI8
aI12
aI8
aI12
aI12
aI14
aI15
aI11
aI11
aI14
aI16
aI13
aI15
aI14
aI18
aI15
aI15
aI17
aa(lp404
I3
aI7
aI8
aI5
aI7
aI4
aI10
aI12
aI9
aI10
aI12
aI7
aI8
aI7
aI11
aI13
aI12
aI14
aI13
aI15
aa(lp405
I6
aI6
aI6
aI4
aI7
aI4
aI11
aI7
aI10
aI9
aI15
aI12
aI14
aI14
aI13
aI13
aI18
aI18
aI16
aI15
aa(lp406
I5
aI7
aI7
aI12
aI7
aI11
aI9
aI8
aI8
aI7
aI7
aI8
aI10
aI10
aI8
aI7
aI14
aI14
aI11
aI15
aa(lp407
I3
aI2
aI1
aI9
aI7
aI7
aI10
aI13
aI13
aI15
aI14
aI10
aI15
aI14
aI14
aI13
aI17
aI15
aI14
aI14
aa(lp408
I2
aI4
aI8
aI10
aI10
aI10
aI13
aI11
aI10
aI10
aI12
aI13
aI11
aI12
aI13
aI10
aI11
aI11
aI15
aI13
aa(lp409
I3
aI6
aI7
aI13
aI11
aI10
aI11
aI10
aI13
aI13
aI13
aI18
aI16
aI16
aI17
aI13
aI14
aI17
aI17
aI16
aa(lp410
I2
aI9
aI10
aI15
aI16
aI16
aI16
aI16
aI13
aI18
aI17
aI18
aI18
aI17
aI15
aI16
aI14
aI13
aI17
aI15
aa(lp411
I3
aI7
aI9
aI10
aI14
aI15
aI15
aI13
aI15
aI14
aI15
aI12
aI16
aI14
aI15
aI14
aI15
aI15
aI17
aI16
aa(lp412
I4
aI9
aI7
aI9
aI8
aI8
aI8
aI7
aI9
aI10
aI11
aI15
aI13
aI15
aI15
aI11
aI14
aI18
aI15
aI15
aa(lp413
I3
aI4
aI6
aI7
aI6
aI4
aI5
aI9
aI9
aI7
aI11
aI12
aI14
aI10
aI13
aI11
aI15
aI13
aI13
aI15
aa(lp414
I3
aI2
aI2
aI3
aI5
aI5
aI5
aI6
aI5
aI6
aI7
aI8
aI12
aI11
aI13
aI14
aI14
aI11
aI12
aI15
aa(lp415
I4
aI9
aI7
aI6
aI12
aI12
aI10
aI14
aI10
aI13
aI16
aI17
aI15
aI14
aI17
aI15
aI16
aI17
aI16
aI14
aa(lp416
I4
aI6
aI4
aI6
aI6
aI10
aI12
aI10
aI10
aI18
aI15
aI17
aI18
aI15
aI13
aI14
aI18
aI14
aI16
aI15
aa(lp417
I1
aI4
aI10
aI10
aI10
aI10
aI10
aI15
aI13
aI15
aI10
aI13
aI15
aI15
aI15
aI10
aI14
aI13
aI17
aI13
aa(lp418
I5
aI5
aI6
aI8
aI11
aI9
aI14
aI16
aI17
aI18
aI14
aI16
aI14
aI15
aI13
aI17
aI16
aI17
aI17
aI16
aa(lp419
I5
aI9
aI8
aI9
aI7
aI14
aI12
aI13
aI14
aI13
aI18
aI15
aI15
aI18
aI13
aI13
aI16
aI14
aI17
aI17
aa(lp420
I2
aI3
aI6
aI8
aI12
aI12
aI15
aI12
aI15
aI15
aI13
aI14
aI16
aI17
aI17
aI15
aI18
aI13
aI18
aI13
aa(lp421
I6
aI3
aI6
aI9
aI10
aI8
aI15
aI12
aI12
aI15
aI10
aI14
aI12
aI10
aI11
aI11
aI14
aI14
aI18
aI15
aa(lp422
I2
aI9
aI11
aI7
aI11
aI12
aI13
aI13
aI14
aI14
aI14
aI13
aI10
aI13
aI14
aI13
aI14
aI15
aI10
aI12
aa(lp423
I5
aI6
aI3
aI3
aI3
aI8
aI7
aI9
aI4
aI12
aI14
aI12
aI13
aI16
aI13
aI15
aI15
aI14
aI16
aI17
aa(lp424
I5
aI7
aI8
aI11
aI10
aI12
aI10
aI11
aI8
aI9
aI9
aI12
aI11
aI7
aI15
aI13
aI13
aI13
aI13
aI13
aa(lp425
I5
aI2
aI2
aI7
aI9
aI12
aI7
aI12
aI11
aI10
aI11
aI7
aI11
aI9
aI8
aI8
aI10
aI12
aI13
aI11
aa(lp426
I4
aI3
aI5
aI8
aI8
aI11
aI8
aI12
aI10
aI10
aI17
aI14
aI16
aI16
aI15
aI18
aI18
aI17
aI13
aI15
aa(lp427
I5
aI7
aI8
aI10
aI7
aI12
aI13
aI15
aI14
aI13
aI16
aI16
aI14
aI13
aI18
aI14
aI15
aI13
aI16
aI13
aa(lp428
I5
aI9
aI8
aI6
aI7
aI12
aI12
aI12
aI12
aI13
aI18
aI14
aI15
aI14
aI15
aI13
aI17
aI13
aI16
aI17
aa(lp429
I6
aI3
aI4
aI7
aI10
aI8
aI10
aI12
aI12
aI11
aI12
aI13
aI13
aI11
aI15
aI14
aI15
aI16
aI17
aI18
aa(lp430
I3
aI5
aI5
aI10
aI12
aI10
aI9
aI8
aI8
aI8
aI8
aI11
aI9
aI11
aI12
aI14
aI15
aI13
aI13
aI13
aa(lp431
I2
aI3
aI8
aI4
aI9
aI7
aI10
aI12
aI13
aI14
aI18
aI13
aI16
aI13
aI18
aI16
aI17
aI15
aI13
aI14
aa(lp432
I1
aI4
aI8
aI10
aI11
aI13
aI14
aI18
aI14
aI16
aI17
aI14
aI13
aI18
aI18
aI15
aI18
aI17
aI13
aI15
aa(lp433
I4
aI3
aI3
aI8
aI6
aI8
aI5
aI10
aI13
aI15
aI14
aI14
aI14
aI12
aI14
aI15
aI17
aI16
aI18
aI15
aa(lp434
I1
aI3
aI3
aI3
aI2
aI3
aI6
aI6
aI6
aI5
aI12
aI7
aI12
aI7
aI12
aI8
aI9
aI14
aI12
aI18
aa(lp435
I6
aI9
aI7
aI11
aI7
aI11
aI7
aI12
aI10
aI10
aI9
aI13
aI12
aI16
aI16
aI15
aI17
aI17
aI14
aI18
aa(lp436
I1
aI5
aI5
aI8
aI5
aI6
aI11
aI9
aI8
aI12
aI10
aI13
aI10
aI12
aI11
aI10
aI10
aI12
aI14
aI14
aa(lp437
I3
aI5
aI10
aI15
aI10
aI15
aI11
aI10
aI15
aI11
aI11
aI10
aI11
aI13
aI13
aI10
aI12
aI13
aI15
aI14
aa(lp438
I5
aI5
aI9
aI6
aI9
aI5
aI7
aI13
aI15
aI15
aI15
aI16
aI16
aI14
aI17
aI16
aI15
aI17
aI16
aI13
aa(lp439
I3
aI4
aI7
aI11
aI9
aI7
aI7
aI9
aI9
aI10
aI11
aI10
aI11
aI13
aI10
aI14
aI12
aI16
aI15
aI14
aa(lp440
I3
aI3
aI7
aI9
aI12
aI8
aI12
aI8
aI11
aI12
aI10
aI11
aI15
aI14
aI18
aI18
aI14
aI17
aI17
aI14
aa(lp441
I1
aI2
aI4
aI3
aI9
aI9
aI12
aI8
aI12
aI14
aI16
aI18
aI14
aI14
aI17
aI16
aI14
aI16
aI18
aI18
aa(lp442
I3
aI5
aI11
aI11
aI8
aI12
aI10
aI11
aI12
aI7
aI13
aI12
aI13
aI14
aI13
aI15
aI13
aI13
aI13
aI16
aa(lp443
I4
aI8
aI9
aI9
aI10
aI10
aI8
aI10
aI7
aI8
aI8
aI10
aI9
aI9
aI13
aI16
aI13
aI15
aI13
aI14
aa(lp444
I1
aI1
aI3
aI4
aI1
aI7
aI8
aI10
aI14
aI15
aI14
aI14
aI12
aI12
aI10
aI11
aI12
aI12
aI13
aI10
aa(lp445
I4
aI3
aI3
aI6
aI5
aI8
aI11
aI10
aI12
aI9
aI12
aI11
aI10
aI12
aI11
aI12
aI14
aI12
aI13
aI15
aa(lp446
I1
aI5
aI6
aI4
aI5
aI5
aI6
aI5
aI6
aI5
aI7
aI7
aI4
aI9
aI11
aI11
aI14
aI10
aI10
aI10
aa(lp447
I3
aI1
aI5
aI9
aI8
aI10
aI10
aI11
aI9
aI10
aI8
aI12
aI8
aI7
aI11
aI7
aI8
aI13
aI12
aI12
aa(lp448
I1
aI4
aI9
aI13
aI15
aI16
aI15
aI16
aI15
aI15
aI13
aI16
aI16
aI13
aI16
aI16
aI16
aI15
aI13
aI14
aa(lp449
I6
aI4
aI9
aI9
aI10
aI11
aI7
aI8
aI12
aI11
aI7
aI8
aI8
aI7
aI9
aI14
aI11
aI17
aI17
aI15
aa(lp450
I3
aI5
aI4
aI7
aI11
aI9
aI12
aI14
aI15
aI16
aI15
aI15
aI17
aI16
aI18
aI14
aI13
aI14
aI14
aI13
aa(lp451
I1
aI8
aI8
aI12
aI12
aI10
aI10
aI14
aI12
aI15
aI17
aI17
aI16
aI15
aI16
aI14
aI17
aI17
aI15
aI13
aa(lp452
I3
aI2
aI2
aI5
aI6
aI8
aI7
aI8
aI5
aI7
aI9
aI11
aI10
aI7
aI8
aI12
aI11
aI13
aI12
aI16
aa(lp453
I2
aI4
aI6
aI9
aI11
aI13
aI18
aI17
aI15
aI17
aI18
aI17
aI15
aI17
aI15
aI14
aI16
aI18
aI17
aI13
aa(lp454
I2
aI1
aI6
aI3
aI2
aI9
aI9
aI9
aI9
aI8
aI11
aI10
aI7
aI8
aI10
aI12
aI13
aI11
aI15
aI12
aa(lp455
I4
aI8
aI5
aI10
aI11
aI12
aI12
aI12
aI9
aI11
aI14
aI10
aI12
aI13
aI11
aI15
aI11
aI12
aI15
aI18
aa(lp456
I6
aI5
aI8
aI5
aI8
aI8
aI7
aI9
aI9
aI8
aI11
aI7
aI7
aI11
aI13
aI15
aI11
aI10
aI11
aI14
aa(lp457
I6
aI5
aI3
aI3
aI1
aI9
aI8
aI5
aI5
aI6
aI7
aI8
aI11
aI11
aI11
aI14
aI10
aI11
aI10
aI13
aa(lp458
I4
aI9
aI6
aI5
aI5
aI6
aI9
aI6
aI12
aI8
aI10
aI7
aI14
aI16
aI13
aI16
aI18
aI16
aI16
aI17
aa(lp459
I2
aI4
aI6
aI9
aI9
aI11
aI14
aI11
aI13
aI11
aI15
aI18
aI15
aI14
aI13
aI18
aI13
aI16
aI16
aI14
aa(lp460
I4
aI5
aI9
aI15
aI12
aI15
aI17
aI17
aI18
aI17
aI14
aI15
aI15
aI14
aI14
aI15
aI18
aI18
aI18
aI18
aa(lp461
I6
aI7
aI4
aI7
aI9
aI7
aI14
aI12
aI15
aI13
aI18
aI16
aI16
aI13
aI15
aI15
aI17
aI17
aI13
aI16
aa(lp462
I1
aI4
aI5
aI4
aI2
aI5
aI4
aI1
aI8
aI5
aI7
aI7
aI12
aI9
aI9
aI11
aI8
aI8
aI14
aI12
aa(lp463
I2
aI9
aI10
aI10
aI13
aI13
aI17
aI16
aI18
aI18
aI17
aI15
aI16
aI13
aI15
aI14
aI15
aI14
aI15
aI14
aa(lp464
I3
aI5
aI11
aI9
aI10
aI11
aI15
aI13
aI11
aI13
aI13
aI16
aI17
aI16
aI16
aI13
aI16
aI17
aI14
aI16
aa(lp465
I6
aI8
aI4
aI7
aI6
aI12
aI7
aI7
aI11
aI11
aI10
aI15
aI18
aI13
aI13
aI18
aI17
aI18
aI17
aI15
aa(lp466
I4
aI7
aI7
aI9
aI10
aI17
aI13
aI16
aI17
aI16
aI17
aI17
aI14
aI13
aI13
aI15
aI14
aI13
aI16
aI15
aa(lp467
I2
aI5
aI8
aI6
aI11
aI9
aI10
aI8
aI14
aI14
aI15
aI15
aI13
aI16
aI13
aI14
aI17
aI16
aI17
aI18
aa(lp468
I1
aI3
aI4
aI9
aI11
aI15
aI13
aI11
aI16
aI17
aI13
aI13
aI13
aI13
aI17
aI15
aI16
aI14
aI18
aI15
aa(lp469
I5
aI3
aI5
aI6
aI4
aI7
aI9
aI7
aI11
aI9
aI9
aI12
aI7
aI9
aI12
aI11
aI11
aI15
aI15
aI14
aa(lp470
I5
aI3
aI6
aI8
aI9
aI9
aI9
aI7
aI10
aI14
aI14
aI13
aI14
aI13
aI14
aI16
aI18
aI14
aI17
aI18
aa(lp471
I3
aI7
aI7
aI5
aI6
aI7
aI9
aI7
aI9
aI15
aI14
aI13
aI17
aI13
aI13
aI14
aI18
aI17
aI16
aI14
aa(lp472
I4
aI6
aI8
aI9
aI14
aI11
aI11
aI10
aI18
aI15
aI16
aI15
aI14
aI14
aI16
aI17
aI13
aI18
aI16
aI17
aa(lp473
I1
aI9
aI8
aI7
aI9
aI9
aI4
aI8
aI12
aI9
aI7
aI12
aI11
aI15
aI17
aI17
aI18
aI13
aI17
aI17
aa(lp474
I4
aI1
aI7
aI9
aI9
aI7
aI8
aI12
aI15
aI15
aI11
aI12
aI10
aI12
aI15
aI14
aI17
aI16
aI16
aI17
aa(lp475
I5
aI8
aI9
aI7
aI9
aI12
aI7
aI9
aI10
aI10
aI14
aI14
aI15
aI14
aI12
aI16
aI13
aI16
aI13
aI16
aa(lp476
I3
aI4
aI4
aI9
aI12
aI7
aI11
aI8
aI9
aI11
aI11
aI10
aI12
aI12
aI13
aI14
aI16
aI17
aI15
aI18
aa(lp477
I2
aI9
aI7
aI11
aI11
aI11
aI12
aI8
aI10
aI12
aI13
aI11
aI15
aI13
aI11
aI15
aI14
aI15
aI10
aI10
aa(lp478
I5
aI6
aI7
aI12
aI9
aI7
aI8
aI8
aI10
aI11
aI14
aI12
aI14
aI12
aI14
aI12
aI16
aI13
aI13
aI15
aa(lp479
I4
aI2
aI4
aI11
aI10
aI14
aI16
aI13
aI14
aI18
aI16
aI17
aI15
aI18
aI14
aI13
aI16
aI15
aI16
aI16
aa(lp480
I6
aI5
aI6
aI5
aI5
aI8
aI11
aI10
aI11
aI12
aI7
aI11
aI12
aI9
aI10
aI10
aI12
aI10
aI12
aI10
aa(lp481
I1
aI1
aI3
aI6
aI2
aI1
aI3
aI5
aI10
aI9
aI9
aI7
aI11
aI11
aI13
aI14
aI11
aI12
aI13
aI13
aa(lp482
I2
aI8
aI9
aI10
aI12
aI13
aI11
aI10
aI16
aI14
aI16
aI13
aI13
aI13
aI17
aI15
aI13
aI13
aI14
aI14
aa(lp483
I2
aI6
aI8
aI11
aI11
aI7
aI10
aI9
aI8
aI12
aI8
aI14
aI10
aI11
aI14
aI12
aI15
aI17
aI13
aI14
aa(lp484
I4
aI4
aI7
aI8
aI10
aI7
aI7
aI7
aI10
aI10
aI14
aI14
aI10
aI12
aI15
aI10
aI15
aI13
aI16
aI14
aa(lp485
I4
aI6
aI6
aI4
aI12
aI11
aI11
aI12
aI12
aI13
aI13
aI14
aI15
aI16
aI15
aI15
aI14
aI14
aI18
aI14
aa(lp486
I6
aI1
aI2
aI6
aI7
aI7
aI12
aI10
aI10
aI7
aI11
aI12
aI11
aI16
aI13
aI16
aI13
aI17
aI13
aI14
aa(lp487
I6
aI6
aI6
aI7
aI9
aI11
aI11
aI11
aI12
aI7
aI12
aI11
aI14
aI14
aI14
aI13
aI10
aI13
aI18
aI18
aa(lp488
I5
aI1
aI3
aI2
aI8
aI8
aI7
aI9
aI12
aI10
aI14
aI13
aI14
aI10
aI13
aI13
aI13
aI16
aI15
aI14
aa(lp489
I6
aI5
aI7
aI9
aI5
aI5
aI9
aI8
aI10
aI10
aI7
aI11
aI8
aI7
aI10
aI18
aI17
aI14
aI17
aI17
aa(lp490
I2
aI4
aI9
aI6
aI8
aI11
aI13
aI11
aI15
aI12
aI16
aI18
aI16
aI15
aI14
aI16
aI17
aI16
aI13
aI13
aa(lp491
I1
aI1
aI6
aI8
aI12
aI13
aI15
aI14
aI10
aI14
aI13
aI15
aI13
aI16
aI17
aI17
aI13
aI17
aI17
aI18
aa(lp492
I3
aI7
aI10
aI12
aI16
aI13
aI14
aI16
aI17
aI18
aI16
aI17
aI17
aI16
aI14
aI18
aI16
aI16
aI18
aI15
aa(lp493
I3
aI7
aI7
aI9
aI10
aI11
aI8
aI12
aI7
aI12
aI11
aI15
aI14
aI14
aI13
aI10
aI12
aI14
aI14
aI17
aa(lp494
I6
aI5
aI9
aI5
aI10
aI9
aI11
aI8
aI10
aI12
aI12
aI13
aI10
aI13
aI17
aI16
aI14
aI16
aI13
aI17
aa(lp495
I1
aI3
aI4
aI3
aI4
aI6
aI7
aI7
aI10
aI9
aI8
aI11
aI11
aI12
aI10
aI14
aI10
aI10
aI14
aI11
aa(lp496
I1
aI2
aI4
aI7
aI9
aI14
aI13
aI14
aI13
aI13
aI14
aI16
aI17
aI18
aI13
aI13
aI17
aI14
aI16
aI15
aa(lp497
I2
aI2
aI1
aI6
aI8
aI7
aI4
aI7
aI9
aI7
aI8
aI8
aI10
aI7
aI7
aI15
aI10
aI10
aI15
aI13
aa(lp498
I4
aI7
aI7
aI4
aI8
aI9
aI7
aI7
aI12
aI8
aI11
aI10
aI12
aI14
aI15
aI15
aI17
aI18
aI16
aI15
aa(lp499
I6
aI6
aI5
aI9
aI7
aI10
aI10
aI11
aI12
aI14
aI13
aI11
aI12
aI15
aI13
aI14
aI13
aI14
aI12
aI13
aa(lp500
I1
aI6
aI6
aI8
aI11
aI7
aI7
aI13
aI13
aI13
aI14
aI13
aI15
aI17
aI14
aI15
aI17
aI18
aI13
aI17
aa(lp501
I6
aI9
aI9
aI15
aI12
aI11
aI18
aI15
aI14
aI14
aI14
aI13
aI16
aI13
aI17
aI15
aI14
aI18
aI15
aI17
aa(lp502
I3
aI6
aI1
aI5
aI6
aI6
aI7
aI9
aI7
aI15
aI17
aI17
aI13
aI17
aI18
aI14
aI13
aI17
aI14
aI18
aa(lp503
I3
aI6
aI4
aI8
aI13
aI12
aI12
aI16
aI18
aI17
aI16
aI16
aI14
aI18
aI15
aI13
aI17
aI17
aI13
aI17
aa(lp504
I3
aI5
aI9
aI11
aI10
aI12
aI10
aI13
aI13
aI18
aI15
aI17
aI13
aI13
aI16
aI14
aI18
aI16
aI15
aI13
aa(lp505
I3
aI6
aI8
aI9
aI9
aI12
aI7
aI7
aI12
aI13
aI14
aI14
aI15
aI11
aI14
aI17
aI16
aI17
aI15
aI13
aa(lp506
I4
aI9
aI6
aI9
aI10
aI7
aI8
aI12
aI10
aI11
aI10
aI14
aI15
aI16
aI13
aI18
aI15
aI14
aI18
aI18
aa(lp507
I4
aI2
aI3
aI5
aI11
aI10
aI13
aI12
aI11
aI10
aI13
aI12
aI15
aI14
aI10
aI14
aI11
aI10
aI14
aI12
aa(lp508
I6
aI7
aI11
aI8
aI8
aI12
aI7
aI8
aI12
aI11
aI8
aI15
aI10
aI10
aI14
aI13
aI14
aI18
aI16
aI17
aa(lp509
I5
aI5
aI6
aI6
aI5
aI6
aI5
aI6
aI10
aI7
aI10
aI11
aI10
aI13
aI14
aI12
aI10
aI11
aI17
aI16
aa(lp510
I5
aI7
aI5
aI4
aI6
aI9
aI7
aI9
aI9
aI11
aI13
aI11
aI13
aI15
aI16
aI13
aI16
aI14
aI13
aI16
aa(lp511
I5
aI8
aI6
aI5
aI8
aI12
aI13
aI13
aI11
aI14
aI17
aI17
aI16
aI16
aI15
aI17
aI16
aI13
aI14
aI17
aa(lp512
I6
aI8
aI5
aI6
aI8
aI8
aI11
aI10
aI15
aI13
aI16
aI15
aI16
aI14
aI13
aI16
aI17
aI14
aI15
aI14
aa(lp513
I2
aI7
aI4
aI9
aI11
aI12
aI8
aI11
aI10
aI11
aI15
aI13
aI15
aI18
aI18
aI17
aI13
aI18
aI16
aI15
aa(lp514
I2
aI4
aI10
aI15
aI11
aI14
aI13
aI12
aI16
aI18
aI17
aI18
aI14
aI16
aI15
aI14
aI13
aI14
aI13
aI14
aa(lp515
I1
aI2
aI5
aI4
aI1
aI6
aI1
aI3
aI5
aI10
aI11
aI11
aI9
aI7
aI11
aI9
aI14
aI15
aI13
aI11
aa(lp516
I2
aI5
aI5
aI5
aI8
aI7
aI8
aI9
aI11
aI8
aI15
aI12
aI13
aI13
aI17
aI17
aI17
aI15
aI14
aI18
aa(lp517
I3
aI8
aI7
aI15
aI12
aI15
aI17
aI13
aI15
aI16
aI16
aI16
aI18
aI13
aI15
aI16
aI18
aI18
aI13
aI18
aa(lp518
I1
aI6
aI7
aI9
aI12
aI11
aI7
aI15
aI14
aI14
aI14
aI17
aI13
aI13
aI16
aI18
aI17
aI18
aI15
aI13
aa(lp519
I4
aI9
aI9
aI9
aI6
aI9
aI9
aI12
aI14
aI10
aI11
aI13
aI15
aI14
aI13
aI16
aI18
aI16
aI13
aI15
aa(lp520
I5
aI9
aI12
aI8
aI7
aI10
aI15
aI15
aI11
aI18
aI14
aI15
aI17
aI16
aI15
aI14
aI14
aI16
aI16
aI17
aa(lp521
I3
aI2
aI8
aI4
aI4
aI7
aI11
aI11
aI8
aI9
aI10
aI11
aI9
aI10
aI11
aI9
aI8
aI10
aI10
aI10
aa(lp522
I1
aI4
aI9
aI9
aI5
aI6
aI6
aI8
aI8
aI10
aI11
aI14
aI15
aI13
aI13
aI13
aI14
aI17
aI15
aI13
aa(lp523
I4
aI4
aI12
aI10
aI7
aI11
aI12
aI16
aI16
aI13
aI15
aI15
aI14
aI15
aI14
aI17
aI13
aI17
aI16
aI16
aa(lp524
I3
aI1
aI4
aI2
aI1
aI6
aI9
aI8
aI4
aI6
aI8
aI12
aI7
aI9
aI8
aI10
aI12
aI12
aI9
aI8
aa(lp525
I1
aI4
aI6
aI8
aI7
aI7
aI11
aI11
aI11
aI12
aI11
aI10
aI13
aI17
aI16
aI14
aI17
aI14
aI13
aI14
aa(lp526
I3
aI5
aI8
aI11
aI12
aI10
aI13
aI14
aI11
aI10
aI11
aI14
aI17
aI13
aI15
aI13
aI13
aI17
aI17
aI13
aa(lp527
I2
aI4
aI9
aI4
aI7
aI5
aI7
aI9
aI11
aI7
aI11
aI10
aI17
aI18
aI13
aI17
aI14
aI17
aI17
aI18
aa(lp528
I3
aI8
aI7
aI6
aI7
aI9
aI4
aI6
aI5
aI8
aI12
aI9
aI7
aI12
aI10
aI15
aI15
aI16
aI15
aI14
aa(lp529
I5
aI8
aI7
aI8
aI10
aI11
aI8
aI13
aI14
aI11
aI15
aI12
aI18
aI13
aI16
aI16
aI17
aI16
aI17
aI14
aa(lp530
I4
aI5
aI6
aI10
aI9
aI11
aI10
aI7
aI12
aI7
aI12
aI12
aI10
aI18
aI14
aI18
aI14
aI14
aI17
aI13
aa(lp531
I1
aI5
aI7
aI7
aI9
aI12
aI10
aI7
aI12
aI16
aI13
aI13
aI13
aI17
aI16
aI18
aI18
aI13
aI14
aI18
aa(lp532
I5
aI6
aI9
aI6
aI5
aI6
aI9
aI11
aI15
aI16
aI16
aI14
aI16
aI16
aI13
aI18
aI16
aI16
aI13
aI18
aa(lp533
I6
aI6
aI4
aI4
aI9
aI8
aI9
aI7
aI9
aI6
aI9
aI7
aI11
aI8
aI8
aI9
aI7
aI9
aI13
aI13
aa(lp534
I1
aI5
aI9
aI7
aI12
aI12
aI9
aI8
aI12
aI8
aI12
aI12
aI12
aI14
aI14
aI16
aI15
aI16
aI15
aI14
aa(lp535
I3
aI7
aI7
aI5
aI6
aI4
aI10
aI10
aI13
aI14
aI14
aI14
aI18
aI17
aI16
aI13
aI14
aI15
aI18
aI13
aa(lp536
I2
aI6
aI1
aI5
aI9
aI8
aI9
aI7
aI8
aI7
aI10
aI12
aI11
aI11
aI10
aI11
aI13
aI11
aI10
aI11
aa(lp537
I1
aI7
aI9
aI8
aI7
aI8
aI7
aI12
aI11
aI13
aI15
aI11
aI14
aI17
aI16
aI13
aI17
aI15
aI15
aI16
aa(lp538
I3
aI7
aI5
aI4
aI4
aI8
aI10
aI9
aI12
aI18
aI13
aI17
aI13
aI17
aI15
aI13
aI17
aI16
aI17
aI15
aa(lp539
I6
aI8
aI8
aI6
aI8
aI10
aI8
aI14
aI14
aI15
aI13
aI17
aI16
aI13
aI13
aI17
aI17
aI17
aI17
aI17
aa(lp540
I2
aI4
aI1
aI6
aI1
aI1
aI6
aI4
aI7
aI7
aI7
aI4
aI12
aI11
aI12
aI10
aI9
aI8
aI7
aI14
aa(lp541
I3
aI7
aI9
aI8
aI10
aI13
aI11
aI17
aI14
aI13
aI15
aI14
aI18
aI18
aI18
aI13
aI14
aI18
aI13
aI18
aa(lp542
I3
aI2
aI5
aI6
aI4
aI8
aI12
aI9
aI12
aI10
aI7
aI9
aI9
aI9
aI12
aI10
aI7
aI11
aI15
aI13
aa(lp543
I3
aI9
aI12
aI11
aI12
aI11
aI11
aI14
aI11
aI16
aI14
aI17
aI15
aI18
aI15
aI16
aI13
aI18
aI17
aI18
aa(lp544
I6
aI5
aI1
aI4
aI5
aI11
aI8
aI15
aI10
aI15
aI15
aI17
aI13
aI14
aI17
aI18
aI15
aI14
aI13
aI16
aa(lp545
I6
aI2
aI5
aI5
aI9
aI6
aI6
aI6
aI8
aI7
aI8
aI12
aI10
aI14
aI14
aI13
aI10
aI13
aI15
aI15
aa(lp546
I4
aI9
aI9
aI10
aI7
aI7
aI12
aI10
aI14
aI12
aI14
aI13
aI14
aI13
aI11
aI13
aI13
aI17
aI18
aI13
aa(lp547
I4
aI6
aI9
aI11
aI10
aI7
aI12
aI14
aI15
aI17
aI14
aI13
aI14
aI14
aI16
aI16
aI15
aI13
aI15
aI13
aa(lp548
I6
aI9
aI7
aI12
aI15
aI13
aI13
aI12
aI14
aI14
aI12
aI18
aI18
aI13
aI17
aI17
aI13
aI16
aI15
aI17
aa(lp549
I2
aI1
aI8
aI8
aI4
aI5
aI7
aI11
aI10
aI9
aI7
aI10
aI13
aI14
aI10
aI11
aI12
aI11
aI12
aI14
aa(lp550
I1
aI5
aI1
aI8
aI8
aI12
aI12
aI11
aI7
aI11
aI9
aI9
aI9
aI13
aI17
aI14
aI17
aI13
aI16
aI14
aa(lp551
I2
aI5
aI6
aI7
aI9
aI11
aI14
aI15
aI14
aI18
aI13
aI18
aI18
aI16
aI17
aI14
aI15
aI13
aI17
aI16
aa(lp552
I3
aI7
aI4
aI12
aI10
aI12
aI14
aI10
aI10
aI17
aI17
aI18
aI18
aI18
aI18
aI13
aI14
aI13
aI16
aI15
aa(lp553
I2
aI1
aI5
aI4
aI9
aI8
aI7
aI11
aI14
aI10
aI15
aI11
aI12
aI12
aI12
aI13
aI14
aI14
aI10
aI11
aa(lp554
I2
aI8
aI5
aI4
aI7
aI14
aI10
aI13
aI18
aI17
aI14
aI18
aI14
aI16
aI16
aI13
aI15
aI18
aI15
aI14
aa(lp555
I2
aI9
aI8
aI12
aI10
aI13
aI11
aI14
aI12
aI12
aI13
aI10
aI13
aI12
aI15
aI13
aI14
aI16
aI15
aI16
aa(lp556
I3
aI5
aI2
aI5
aI6
aI8
aI8
aI13
aI12
aI10
aI14
aI18
aI16
aI14
aI17
aI18
aI16
aI18
aI14
aI17
aa(lp557
I3
aI4
aI11
aI11
aI15
aI15
aI18
aI15
aI18
aI14
aI17
aI15
aI18
aI16
aI18
aI13
aI18
aI14
aI16
aI13
aa(lp558
I3
aI2
aI5
aI3
aI5
aI8
aI4
aI5
aI7
aI11
aI12
aI13
aI10
aI17
aI17
aI18
aI14
aI15
aI17
aI13
aa(lp559
I6
aI4
aI7
aI14
aI13
aI15
aI12
aI15
aI10
aI10
aI13
aI13
aI16
aI15
aI13
aI13
aI17
aI18
aI16
aI18
aa(lp560
I4
aI4
aI5
aI1
aI6
aI3
aI5
aI6
aI8
aI12
aI12
aI10
aI10
aI11
aI14
aI15
aI10
aI10
aI17
aI15
aa(lp561
I3
aI8
aI6
aI5
aI4
aI5
aI7
aI9
aI10
aI15
aI13
aI17
aI13
aI18
aI15
aI16
aI16
aI16
aI15
aI18
aa(lp562
I3
aI5
aI3
aI3
aI9
aI7
aI8
aI8
aI8
aI7
aI11
aI15
aI12
aI12
aI11
aI14
aI14
aI11
aI15
aI12
aa(lp563
I6
aI4
aI11
aI8
aI11
aI7
aI12
aI14
aI17
aI17
aI17
aI15
aI14
aI18
aI14
aI17
aI13
aI14
aI15
aI18
aa(lp564
I3
aI5
aI5
aI3
aI2
aI5
aI9
aI9
aI5
aI12
aI11
aI8
aI10
aI9
aI10
aI7
aI9
aI8
aI8
aI7
aa(lp565
I2
aI4
aI8
aI8
aI8
aI12
aI11
aI12
aI12
aI10
aI14
aI16
aI18
aI13
aI17
aI18
aI18
aI17
aI14
aI16
aa(lp566
I1
aI3
aI3
aI6
aI8
aI9
aI11
aI7
aI12
aI10
aI12
aI8
aI12
aI11
aI17
aI13
aI13
aI17
aI13
aI16
aa(lp567
I5
aI3
aI5
aI1
aI8
aI8
aI10
aI9
aI13
aI10
aI14
aI10
aI11
aI11
aI12
aI10
aI11
aI18
aI16
aI15
aa(lp568
I1
aI2
aI1
aI1
aI6
aI5
aI5
aI7
aI10
aI10
aI16
aI15
aI13
aI13
aI18
aI13
aI16
aI14
aI13
aI17
aa(lp569
I4
aI5
aI6
aI8
aI5
aI9
aI8
aI11
aI11
aI10
aI15
aI14
aI13
aI15
aI17
aI17
aI17
aI15
aI14
aI17
aa(lp570
I2
aI7
aI8
aI7
aI10
aI10
aI13
aI15
aI11
aI13
aI13
aI15
aI13
aI12
aI10
aI11
aI12
aI14
aI14
aI18
aa(lp571
I1
aI6
aI8
aI10
aI15
aI13
aI17
aI15
aI15
aI17
aI17
aI13
aI14
aI13
aI16
aI16
aI14
aI17
aI13
aI15
aa(lp572
I3
aI6
aI1
aI7
aI6
aI7
aI12
aI10
aI10
aI17
aI13
aI14
aI15
aI18
aI15
aI14
aI14
aI13
aI13
aI17
aa(lp573
I5
aI4
aI9
aI9
aI8
aI9
aI7
aI7
aI10
aI15
aI12
aI15
aI15
aI13
aI16
aI18
aI17
aI13
aI18
aI13
aa(lp574
I2
aI5
aI8
aI11
aI7
aI9
aI11
aI11
aI8
aI7
aI12
aI17
aI15
aI17
aI17
aI18
aI15
aI15
aI17
aI14
aa(lp575
I5
aI7
aI10
aI9
aI7
aI13
aI12
aI13
aI15
aI15
aI15
aI13
aI13
aI18
aI17
aI14
aI18
aI14
aI18
aI17
aa(lp576
I3
aI6
aI6
aI7
aI6
aI10
aI12
aI12
aI9
aI7
aI12
aI11
aI11
aI8
aI10
aI10
aI11
aI7
aI8
aI7
aa(lp577
I1
aI4
aI8
aI8
aI9
aI11
aI10
aI11
aI12
aI9
aI11
aI12
aI15
aI13
aI11
aI13
aI14
aI18
aI18
aI16
aa(lp578
I1
aI4
aI4
aI4
aI7
aI9
aI12
aI10
aI7
aI11
aI12
aI10
aI10
aI12
aI9
aI10
aI15
aI15
aI15
aI10
aa(lp579
I2
aI2
aI6
aI9
aI9
aI9
aI10
aI12
aI15
aI12
aI14
aI10
aI13
aI13
aI15
aI18
aI13
aI17
aI18
aI14
aa(lp580
I4
aI5
aI9
aI12
aI8
aI8
aI10
aI15
aI15
aI18
aI16
aI13
aI18
aI13
aI15
aI14
aI13
aI16
aI15
aI14
aa(lp581
I2
aI6
aI7
aI6
aI9
aI7
aI5
aI8
aI12
aI11
aI11
aI16
aI17
aI14
aI14
aI14
aI17
aI16
aI17
aI16
aa(lp582
I6
aI7
aI8
aI9
aI10
aI12
aI9
aI8
aI11
aI13
aI13
aI10
aI15
aI14
aI13
aI17
aI17
aI17
aI13
aI13
aa(lp583
I6
aI3
aI5
aI9
aI5
aI9
aI10
aI14
aI10
aI15
aI13
aI17
aI17
aI15
aI17
aI16
aI18
aI17
aI17
aI18
aa(lp584
I1
aI7
aI6
aI11
aI10
aI7
aI11
aI12
aI12
aI14
aI12
aI13
aI13
aI18
aI15
aI13
aI17
aI15
aI13
aI16
aa(lp585
I4
aI9
aI4
aI9
aI9
aI8
aI4
aI8
aI5
aI9
aI10
aI18
aI17
aI18
aI18
aI18
aI18
aI17
aI15
aI14
aa(lp586
I6
aI8
aI5
aI9
aI6
aI9
aI11
aI10
aI9
aI12
aI11
aI11
aI8
aI13
aI11
aI12
aI18
aI16
aI15
aI13
aa(lp587
I4
aI9
aI5
aI5
aI7
aI10
aI14
aI14
aI16
aI15
aI17
aI16
aI14
aI16
aI18
aI15
aI13
aI17
aI17
aI16
aa(lp588
I3
aI9
aI9
aI9
aI4
aI11
aI12
aI11
aI12
aI7
aI10
aI7
aI8
aI12
aI8
aI15
aI11
aI11
aI14
aI14
aa(lp589
I5
aI7
aI12
aI10
aI13
aI14
aI14
aI13
aI14
aI18
aI16
aI14
aI16
aI14
aI17
aI16
aI17
aI13
aI18
aI15
aa(lp590
I6
aI6
aI5
aI9
aI11
aI7
aI11
aI11
aI11
aI15
aI13
aI13
aI15
aI13
aI18
aI13
aI16
aI14
aI14
aI17
aa(lp591
I1
aI3
aI6
aI5
aI5
aI5
aI6
aI6
aI8
aI5
aI9
aI7
aI8
aI13
aI12
aI10
aI10
aI13
aI16
aI14
aa(lp592
I1
aI5
aI6
aI12
aI10
aI7
aI9
aI8
aI12
aI10
aI15
aI12
aI13
aI11
aI13
aI15
aI11
aI14
aI13
aI11
aa(lp593
I5
aI9
aI9
aI12
aI10
aI12
aI9
aI7
aI11
aI12
aI13
aI15
aI17
aI13
aI18
aI16
aI13
aI18
aI17
aI14
aa(lp594
I4
aI6
aI1
aI1
aI8
aI4
aI5
aI7
aI13
aI15
aI15
aI14
aI13
aI15
aI17
aI13
aI15
aI14
aI18
aI14
aa(lp595
I2
aI8
aI10
aI9
aI7
aI10
aI12
aI11
aI11
aI8
aI8
aI12
aI10
aI11
aI11
aI15
aI15
aI13
aI11
aI10
aa(lp596
I6
aI9
aI11
aI11
aI10
aI9
aI7
aI12
aI8
aI8
aI11
aI12
aI11
aI14
aI14
aI18
aI17
aI14
aI18
aI13
aa(lp597
I2
aI8
aI6
aI6
aI4
aI10
aI11
aI13
aI10
aI18
aI16
aI17
aI18
aI17
aI13
aI17
aI13
aI17
aI14
aI13
aa(lp598
I3
aI9
aI6
aI4
aI12
aI9
aI9
aI14
aI10
aI14
aI15
aI14
aI15
aI18
aI18
aI15
aI16
aI16
aI17
aI17
aa(lp599
I3
aI6
aI7
aI11
aI14
aI10
aI12
aI12
aI10
aI14
aI13
aI18
aI15
aI15
aI15
aI18
aI17
aI18
aI13
aI13
aa(lp600
I4
aI2
aI7
aI11
aI13
aI14
aI13
aI15
aI13
aI10
aI13
aI14
aI14
aI13
aI17
aI13
aI14
aI16
aI13
aI14
aa(lp601
I6
aI6
aI7
aI7
aI6
aI5
aI6
aI8
aI11
aI10
aI7
aI9
aI11
aI12
aI9
aI10
aI10
aI14
aI12
aI16
aa(lp602
I2
aI2
aI6
aI2
aI7
aI6
aI9
aI4
aI9
aI9
aI4
aI7
aI4
aI12
aI9
aI13
aI15
aI14
aI14
aI14
aa(lp603
I4
aI9
aI6
aI10
aI10
aI15
aI15
aI12
aI11
aI14
aI10
aI11
aI10
aI12
aI12
aI13
aI12
aI14
aI12
aI10
aa(lp604
I6
aI1
aI8
aI9
aI4
aI6
aI4
aI7
aI5
aI9
aI12
aI10
aI9
aI7
aI7
aI11
aI11
aI14
aI15
aI16
aa(lp605
I3
aI1
aI2
aI6
aI8
aI11
aI7
aI15
aI12
aI15
aI13
aI13
aI15
aI14
aI17
aI13
aI16
aI15
aI13
aI18
aa(lp606
I1
aI2
aI8
aI8
aI10
aI7
aI9
aI12
aI7
aI12
aI7
aI12
aI9
aI11
aI13
aI15
aI12
aI13
aI16
aI17
aa(lp607
I4
aI4
aI12
aI7
aI10
aI7
aI10
aI7
aI11
aI11
aI8
aI11
aI14
aI13
aI10
aI17
aI18
aI14
aI18
aI17
aa(lp608
I5
aI9
aI10
aI8
aI9
aI12
aI9
aI12
aI10
aI12
aI10
aI15
aI13
aI12
aI12
aI15
aI17
aI14
aI18
aI15
aa(lp609
I3
aI3
aI5
aI6
aI9
aI10
aI10
aI8
aI11
aI12
aI11
aI7
aI13
aI10
aI12
aI14
aI13
aI14
aI13
aI18
aa(lp610
I4
aI4
aI9
aI5
aI12
aI9
aI14
aI14
aI13
aI12
aI13
aI15
aI12
aI16
aI18
aI13
aI17
aI18
aI18
aI17
aa(lp611
I6
aI4
aI3
aI8
aI4
aI7
aI8
aI8
aI8
aI12
aI11
aI10
aI13
aI14
aI14
aI18
aI16
aI16
aI17
aI15
aa(lp612
I4
aI4
aI9
aI7
aI7
aI11
aI7
aI9
aI9
aI10
aI8
aI12
aI7
aI13
aI18
aI15
aI13
aI15
aI17
aI17
aa(lp613
I5
aI7
aI8
aI8
aI9
aI10
aI7
aI10
aI14
aI15
aI15
aI18
aI16
aI13
aI13
aI15
aI14
aI18
aI18
aI13
aa(lp614
I1
aI5
aI5
aI6
aI12
aI7
aI10
aI14
aI11
aI11
aI12
aI15
aI14
aI14
aI14
aI12
aI17
aI17
aI14
aI15
aa(lp615
I6
aI5
aI8
aI5
aI7
aI10
aI15
aI12
aI13
aI15
aI16
aI13
aI16
aI14
aI16
aI17
aI15
aI15
aI17
aI15
aa(lp616
I2
aI5
aI4
aI5
aI11
aI10
aI10
aI11
aI11
aI10
aI7
aI11
aI12
aI10
aI17
aI18
aI18
aI18
aI18
aI14
aa(lp617
I3
aI4
aI5
aI7
aI12
aI7
aI12
aI12
aI15
aI11
aI13
aI14
aI13
aI11
aI10
aI15
aI15
aI17
aI17
aI17
aa(lp618
I1
aI6
aI5
aI11
aI7
aI11
aI12
aI13
aI14
aI13
aI14
aI12
aI12
aI13
aI16
aI13
aI17
aI13
aI18
aI14
aa(lp619
I1
aI2
aI1
aI3
aI9
aI7
aI8
aI8
aI8
aI10
aI11
aI11
aI16
aI14
aI17
aI16
aI16
aI17
aI15
aI16
aa(lp620
I2
aI5
aI8
aI14
aI15
aI12
aI14
aI12
aI14
aI13
aI14
aI12
aI11
aI14
aI13
aI15
aI14
aI17
aI17
aI17
aa(lp621
I1
aI4
aI4
aI6
aI4
aI7
aI10
aI11
aI10
aI7
aI12
aI12
aI11
aI11
aI14
aI18
aI13
aI13
aI16
aI13
aa(lp622
I4
aI2
aI6
aI12
aI9
aI7
aI9
aI10
aI14
aI15
aI16
aI15
aI18
aI13
aI17
aI14
aI15
aI16
aI15
aI13
aa(lp623
I2
aI1
aI1
aI4
aI4
aI5
aI5
aI5
aI7
aI7
aI8
aI10
aI12
aI7
aI10
aI7
aI14
aI15
aI15
aI14
aa(lp624
I1
aI5
aI6
aI9
aI4
aI7
aI11
aI7
aI11
aI12
aI7
aI11
aI9
aI12
aI15
aI16
aI18
aI13
aI15
aI14
aa(lp625
I2
aI1
aI7
aI8
aI10
aI11
aI10
aI12
aI14
aI14
aI11
aI11
aI10
aI13
aI13
aI10
aI12
aI11
aI10
aI11
aa(lp626
I1
aI2
aI4
aI9
aI6
aI10
aI10
aI10
aI12
aI18
aI13
aI16
aI16
aI18
aI16
aI16
aI17
aI16
aI17
aI14
aa(lp627
I5
aI5
aI7
aI9
aI8
aI10
aI15
aI15
aI16
aI16
aI14
aI15
aI17
aI15
aI17
aI14
aI18
aI16
aI16
aI13
aa(lp628
I1
aI6
aI4
aI8
aI9
aI11
aI11
aI12
aI14
aI13
aI14
aI18
aI15
aI15
aI15
aI13
aI18
aI17
aI16
aI16
aa(lp629
I6
aI5
aI5
aI10
aI10
aI14
aI11
aI15
aI15
aI13
aI14
aI15
aI17
aI18
aI13
aI15
aI15
aI14
aI18
aI18
aa(lp630
I3
aI6
aI8
aI7
aI11
aI15
aI14
aI16
aI17
aI16
aI15
aI15
aI17
aI17
aI14
aI13
aI16
aI17
aI13
aI14
aa(lp631
I3
aI5
aI6
aI10
aI12
aI10
aI14
aI14
aI13
aI18
aI18
aI14
aI16
aI14
aI16
aI13
aI16
aI15
aI14
aI13
aa(lp632
I3
aI5
aI11
aI12
aI17
aI18
aI13
aI18
aI14
aI14
aI16
aI18
aI13
aI18
aI13
aI13
aI18
aI17
aI16
aI16
aa(lp633
I2
aI9
aI9
aI5
aI8
aI7
aI8
aI11
aI8
aI10
aI8
aI11
aI12
aI13
aI16
aI13
aI17
aI14
aI14
aI16
aa(lp634
I6
aI5
aI7
aI8
aI8
aI12
aI7
aI12
aI14
aI18
aI18
aI15
aI14
aI16
aI15
aI17
aI16
aI17
aI17
aI15
aa(lp635
I5
aI1
aI5
aI7
aI4
aI6
aI9
aI9
aI12
aI10
aI10
aI11
aI15
aI13
aI15
aI15
aI18
aI13
aI16
aI18
aa(lp636
I4
aI6
aI7
aI8
aI4
aI4
aI9
aI9
aI11
aI14
aI10
aI12
aI12
aI15
aI15
aI15
aI15
aI10
aI13
aI13
aa(lp637
I3
aI2
aI4
aI7
aI7
aI10
aI12
aI14
aI11
aI16
aI15
aI13
aI16
aI18
aI13
aI18
aI17
aI18
aI15
aI14
aa(lp638
I6
aI4
aI9
aI9
aI5
aI9
aI8
aI11
aI9
aI8
aI11
aI13
aI15
aI14
aI15
aI12
aI17
aI14
aI16
aI13
aa(lp639
I1
aI6
aI5
aI7
aI12
aI12
aI14
aI11
aI13
aI14
aI12
aI15
aI14
aI15
aI13
aI14
aI16
aI18
aI14
aI18
aa(lp640
I3
aI9
aI8
aI6
aI5
aI12
aI12
aI12
aI12
aI15
aI15
aI11
aI13
aI12
aI10
aI15
aI12
aI12
aI17
aI14
aa(lp641
I6
aI6
aI9
aI8
aI6
aI6
aI6
aI11
aI13
aI10
aI15
aI15
aI13
aI12
aI11
aI14
aI18
aI16
aI17
aI14
aa(lp642
I3
aI3
aI6
aI4
aI5
aI12
aI12
aI8
aI7
aI7
aI14
aI12
aI12
aI15
aI14
aI11
aI14
aI10
aI13
aI14
aa(lp643
I3
aI2
aI6
aI5
aI6
aI5
aI11
aI12
aI12
aI15
aI14
aI13
aI12
aI16
aI17
aI18
aI13
aI16
aI18
aI14
aa(lp644
I2
aI7
aI11
aI8
aI12
aI15
aI14
aI11
aI11
aI15
aI15
aI15
aI10
aI15
aI16
aI16
aI15
aI18
aI13
aI14
aa(lp645
I4
aI8
aI5
aI6
aI9
aI6
aI7
aI11
aI10
aI9
aI13
aI12
aI11
aI14
aI13
aI14
aI14
aI14
aI10
aI12
aa(lp646
I6
aI5
aI4
aI8
aI12
aI9
aI8
aI11
aI8
aI13
aI14
aI13
aI14
aI14
aI18
aI15
aI13
aI14
aI13
aI15
aa(lp647
I1
aI6
aI8
aI14
aI18
aI17
aI15
aI14
aI16
aI14
aI13
aI16
aI15
aI14
aI16
aI13
aI15
aI15
aI18
aI15
aa(lp648
I4
aI5
aI4
aI6
aI9
aI9
aI11
aI14
aI14
aI12
aI15
aI14
aI17
aI15
aI13
aI13
aI13
aI16
aI13
aI13
aa(lp649
I4
aI3
aI5
aI5
aI8
aI8
aI4
aI6
aI8
aI9
aI12
aI11
aI13
aI15
aI14
aI10
aI18
aI16
aI14
aI14
aa(lp650
I3
aI4
aI7
aI7
aI9
aI7
aI7
aI12
aI15
aI18
aI13
aI13
aI18
aI17
aI13
aI15
aI17
aI14
aI13
aI18
aa(lp651
I1
aI2
aI5
aI9
aI7
aI9
aI8
aI11
aI8
aI11
aI12
aI15
aI13
aI13
aI15
aI14
aI18
aI18
aI17
aI15
aa(lp652
I2
aI7
aI4
aI11
aI7
aI11
aI15
aI10
aI13
aI10
aI10
aI15
aI14
aI14
aI14
aI16
aI18
aI14
aI13
aI16
aa(lp653
I2
aI4
aI7
aI7
aI9
aI11
aI12
aI11
aI12
aI9
aI7
aI7
aI9
aI11
aI10
aI12
aI7
aI15
aI12
aI11
aa(lp654
I3
aI9
aI10
aI7
aI8
aI15
aI14
aI11
aI15
aI14
aI12
aI13
aI12
aI13
aI13
aI11
aI11
aI12
aI10
aI14
aa(lp655
I1
aI4
aI8
aI12
aI10
aI11
aI12
aI12
aI16
aI18
aI13
aI13
aI14
aI17
aI16
aI14
aI18
aI14
aI14
aI13
aa(lp656
I1
aI8
aI8
aI8
aI10
aI15
aI13
aI10
aI12
aI15
aI11
aI11
aI13
aI10
aI14
aI10
aI11
aI10
aI15
aI14
aa(lp657
I3
aI4
aI7
aI9
aI9
aI11
aI10
aI12
aI14
aI12
aI12
aI14
aI14
aI16
aI16
aI15
aI15
aI17
aI18
aI18
aa(lp658
I6
aI2
aI3
aI4
aI7
aI8
aI10
aI7
aI10
aI7
aI9
aI8
aI12
aI12
aI8
aI11
aI7
aI8
aI9
aI9
aa(lp659
I2
aI9
aI10
aI10
aI7
aI11
aI9
aI8
aI7
aI13
aI12
aI13
aI15
aI10
aI15
aI13
aI14
aI14
aI14
aI17
aa(lp660
I6
aI6
aI5
aI9
aI8
aI9
aI13
aI10
aI15
aI12
aI17
aI14
aI14
aI15
aI13
aI17
aI13
aI15
aI15
aI18
aa(lp661
I5
aI2
aI5
aI6
aI4
aI12
aI15
aI13
aI11
aI13
aI14
aI16
aI18
aI17
aI16
aI13
aI14
aI16
aI16
aI15
aa(lp662
I4
aI5
aI8
aI10
aI9
aI9
aI7
aI8
aI7
aI12
aI12
aI10
aI11
aI8
aI9
aI12
aI11
aI12
aI10
aI10
aa(lp663
I1
aI8
aI8
aI14
aI11
aI17
aI16
aI18
aI16
aI18
aI13
aI15
aI16
aI16
aI16
aI16
aI16
aI16
aI17
aI15
aa(lp664
I4
aI2
aI6
aI3
aI8
aI5
aI9
aI7
aI9
aI10
aI10
aI14
aI13
aI18
aI17
aI13
aI14
aI14
aI16
aI16
aa(lp665
I2
aI1
aI9
aI9
aI4
aI12
aI8
aI13
aI15
aI11
aI15
aI11
aI14
aI15
aI10
aI12
aI16
aI13
aI15
aI17
aa(lp666
I5
aI4
aI8
aI7
aI8
aI7
aI11
aI14
aI17
aI18
aI17
aI16
aI14
aI13
aI14
aI15
aI15
aI18
aI13
aI13
aa(lp667
I2
aI3
aI6
aI6
aI7
aI4
aI6
aI7
aI4
aI9
aI10
aI7
aI8
aI9
aI10
aI10
aI10
aI12
aI12
aI10
aa(lp668
I2
aI3
aI8
aI7
aI11
aI9
aI13
aI15
aI12
aI15
aI14
aI15
aI13
aI16
aI17
aI18
aI15
aI13
aI17
aI18
aa(lp669
I3
aI4
aI12
aI7
aI9
aI11
aI8
aI8
aI12
aI12
aI17
aI15
aI14
aI16
aI17
aI14
aI14
aI16
aI15
aI15
aa(lp670
I3
aI5
aI2
aI4
aI9
aI9
aI11
aI14
aI12
aI15
aI11
aI12
aI10
aI13
aI14
aI16
aI16
aI16
aI15
aI13
aa(lp671
I3
aI1
aI1
aI5
aI11
aI12
aI15
aI12
aI12
aI15
aI13
aI10
aI12
aI13
aI14
aI12
aI12
aI13
aI13
aI13
aa(lp672
I1
aI9
aI8
aI8
aI7
aI12
aI8
aI10
aI11
aI12
aI11
aI15
aI17
aI17
aI16
aI16
aI18
aI14
aI17
aI14
aa(lp673
I5
aI3
aI6
aI6
aI9
aI10
aI18
aI13
aI18
aI16
aI15
aI15
aI18
aI16
aI15
aI16
aI18
aI18
aI14
aI15
aa(lp674
I3
aI7
aI7
aI10
aI14
aI12
aI13
aI13
aI12
aI11
aI17
aI13
aI16
aI16
aI16
aI15
aI14
aI16
aI17
aI15
aa(lp675
I5
aI9
aI9
aI4
aI8
aI4
aI6
aI6
aI9
aI9
aI12
aI9
aI12
aI10
aI12
aI16
aI18
aI17
aI15
aI16
aa(lp676
I6
aI3
aI5
aI1
aI1
aI9
aI6
aI7
aI14
aI12
aI13
aI13
aI14
aI18
aI18
aI16
aI18
aI16
aI17
aI16
aa(lp677
I5
aI3
aI6
aI10
aI12
aI11
aI12
aI17
aI14
aI18
aI13
aI16
aI18
aI15
aI17
aI16
aI15
aI17
aI17
aI18
aa(lp678
I4
aI5
aI5
aI12
aI9
aI8
aI15
aI10
aI11
aI17
aI16
aI18
aI17
aI14
aI13
aI15
aI15
aI13
aI17
aI16
aa(lp679
I2
aI4
aI6
aI7
aI9
aI11
aI12
aI12
aI7
aI12
aI7
aI7
aI15
aI11
aI13
aI13
aI18
aI18
aI17
aI13
aa(lp680
I3
aI5
aI9
aI10
aI10
aI8
aI10
aI10
aI12
aI18
aI13
aI14
aI16
aI13
aI14
aI17
aI15
aI16
aI15
aI13
aa(lp681
I2
aI7
aI12
aI8
aI12
aI7
aI11
aI7
aI11
aI15
aI13
aI11
aI14
aI14
aI13
aI11
aI13
aI14
aI10
aI17
aa(lp682
I6
aI4
aI1
aI6
aI7
aI6
aI9
aI6
aI12
aI7
aI11
aI8
aI9
aI9
aI8
aI9
aI13
aI15
aI18
aI14
aa(lp683
I1
aI4
aI6
aI5
aI12
aI10
aI14
aI10
aI12
aI14
aI13
aI14
aI15
aI14
aI13
aI16
aI17
aI15
aI16
aI15
aa(lp684
I4
aI4
aI8
aI5
aI11
aI11
aI7
aI10
aI14
aI16
aI14
aI13
aI14
aI15
aI14
aI16
aI17
aI14
aI18
aI17
aa(lp685
I4
aI9
aI4
aI9
aI11
aI9
aI8
aI8
aI14
aI12
aI13
aI13
aI18
aI16
aI14
aI15
aI16
aI14
aI14
aI18
aa(lp686
I4
aI6
aI9
aI7
aI7
aI9
aI10
aI12
aI8
aI10
aI14
aI13
aI15
aI12
aI15
aI17
aI16
aI17
aI18
aI16
aa(lp687
I5
aI6
aI5
aI7
aI10
aI12
aI15
aI11
aI17
aI16
aI13
aI18
aI14
aI17
aI13
aI14
aI17
aI13
aI17
aI18
aa(lp688
I1
aI9
aI6
aI7
aI10
aI15
aI13
aI11
aI15
aI14
aI13
aI15
aI12
aI13
aI14
aI14
aI17
aI15
aI15
aI18
aa(lp689
I5
aI2
aI4
aI7
aI4
aI7
aI9
aI7
aI6
aI4
aI7
aI12
aI11
aI12
aI9
aI7
aI11
aI7
aI12
aI12
aa(lp690
I5
aI6
aI6
aI4
aI8
aI8
aI7
aI9
aI8
aI7
aI10
aI12
aI9
aI10
aI11
aI12
aI12
aI12
aI7
aI14
aa(lp691
I1
aI1
aI5
aI5
aI9
aI10
aI7
aI7
aI12
aI12
aI12
aI13
aI16
aI15
aI18
aI13
aI14
aI17
aI18
aI14
aa(lp692
I1
aI3
aI2
aI7
aI8
aI6
aI7
aI6
aI6
aI6
aI5
aI5
aI7
aI12
aI8
aI10
aI14
aI10
aI15
aI15
aa(lp693
I5
aI6
aI9
aI12
aI17
aI16
aI16
aI14
aI14
aI14
aI17
aI18
aI15
aI16
aI17
aI14
aI15
aI18
aI16
aI13
aa(lp694
I1
aI4
aI5
aI11
aI7
aI13
aI11
aI15
aI18
aI14
aI15
aI14
aI16
aI18
aI14
aI16
aI14
aI15
aI17
aI17
aa(lp695
I5
aI9
aI9
aI12
aI9
aI12
aI10
aI13
aI14
aI14
aI14
aI10
aI14
aI11
aI11
aI11
aI11
aI12
aI12
aI10
aa(lp696
I6
aI5
aI9
aI4
aI9
aI12
aI12
aI10
aI9
aI10
aI7
aI8
aI7
aI12
aI7
aI10
aI7
aI12
aI9
aI8
aa(lp697
I1
aI3
aI5
aI6
aI12
aI8
aI15
aI10
aI12
aI15
aI14
aI14
aI15
aI17
aI13
aI14
aI13
aI16
aI13
aI16
aa(lp698
I5
aI4
aI4
aI7
aI9
aI12
aI12
aI11
aI17
aI16
aI14
aI13
aI13
aI16
aI15
aI18
aI13
aI17
aI18
aI14
aa(lp699
I2
aI2
aI2
aI4
aI4
aI8
aI10
aI8
aI11
aI13
aI13
aI15
aI14
aI12
aI18
aI18
aI14
aI15
aI15
aI17
aa(lp700
I6
aI7
aI10
aI10
aI10
aI7
aI7
aI8
aI14
aI18
aI17
aI17
aI13
aI17
aI15
aI17
aI18
aI15
aI18
aI17
aa(lp701
I4
aI4
aI4
aI8
aI10
aI7
aI12
aI9
aI15
aI17
aI16
aI16
aI13
aI16
aI16
aI17
aI16
aI14
aI15
aI18
aa(lp702
I3
aI5
aI2
aI5
aI7
aI9
aI6
aI10
aI12
aI11
aI12
aI10
aI15
aI11
aI15
aI14
aI18
aI13
aI18
aI17
aa(lp703
I2
aI6
aI9
aI7
aI8
aI10
aI12
aI10
aI15
aI15
aI16
aI13
aI18
aI17
aI17
aI14
aI15
aI18
aI18
aI15
aa(lp704
I5
aI1
aI8
aI8
aI11
aI12
aI11
aI11
aI12
aI12
aI10
aI10
aI17
aI17
aI16
aI13
aI15
aI16
aI18
aI18
aa(lp705
I3
aI3
aI6
aI5
aI6
aI9
aI8
aI7
aI10
aI13
aI13
aI16
aI18
aI15
aI18
aI18
aI17
aI15
aI16
aI14
aa(lp706
I1
aI1
aI2
aI5
aI7
aI11
aI11
aI14
aI15
aI14
aI14
aI15
aI17
aI14
aI16
aI14
aI15
aI13
aI13
aI17
aa(lp707
I3
aI4
aI8
aI5
aI7
aI9
aI4
aI4
aI9
aI7
aI9
aI8
aI11
aI9
aI8
aI13
aI14
aI10
aI10
aI17
aa(lp708
I1
aI2
aI9
aI9
aI9
aI7
aI5
aI6
aI7
aI4
aI6
aI9
aI15
aI15
aI14
aI14
aI14
aI13
aI17
aI17
aa(lp709
I3
aI5
aI4
aI12
aI12
aI15
aI11
aI14
aI13
aI13
aI14
aI17
aI18
aI18
aI15
aI16
aI14
aI18
aI17
aI17
aa(lp710
I6
aI6
aI3
aI4
aI9
aI12
aI11
aI13
aI14
aI13
aI16
aI14
aI16
aI15
aI17
aI17
aI17
aI17
aI14
aI17
aa(lp711
I3
aI6
aI12
aI8
aI7
aI8
aI11
aI9
aI8
aI12
aI9
aI9
aI12
aI13
aI13
aI13
aI15
aI14
aI16
aI17
aa(lp712
I1
aI4
aI7
aI8
aI15
aI12
aI11
aI14
aI12
aI10
aI15
aI15
aI13
aI13
aI13
aI16
aI14
aI15
aI14
aI15
aa(lp713
I2
aI6
aI4
aI5
aI4
aI7
aI7
aI9
aI5
aI11
aI7
aI7
aI11
aI13
aI16
aI14
aI13
aI17
aI13
aI16
aa(lp714
I3
aI4
aI8
aI7
aI10
aI8
aI9
aI14
aI12
aI18
aI16
aI13
aI14
aI15
aI16
aI14
aI16
aI17
aI18
aI15
aa(lp715
I3
aI5
aI7
aI4
aI9
aI11
aI10
aI11
aI13
aI12
aI13
aI13
aI13
aI15
aI18
aI16
aI18
aI18
aI15
aI13
aa(lp716
I4
aI7
aI4
aI11
aI15
aI11
aI13
aI11
aI14
aI15
aI18
aI16
aI16
aI17
aI13
aI16
aI13
aI17
aI16
aI14
aa(lp717
I5
aI5
aI8
aI11
aI7
aI8
aI7
aI9
aI8
aI9
aI10
aI8
aI10
aI12
aI10
aI11
aI12
aI12
aI8
aI11
aa(lp718
I3
aI1
aI6
aI9
aI9
aI13
aI13
aI16
aI17
aI18
aI15
aI17
aI15
aI18
aI14
aI16
aI14
aI16
aI17
aI15
aa(lp719
I5
aI2
aI4
aI1
aI4
aI5
aI8
aI11
aI14
aI13
aI12
aI14
aI11
aI14
aI13
aI15
aI18
aI16
aI18
aI13
aa(lp720
I4
aI6
aI6
aI10
aI14
aI14
aI14
aI15
aI18
aI13
aI18
aI16
aI18
aI15
aI14
aI13
aI18
aI17
aI17
aI18
aa(lp721
I2
aI4
aI1
aI4
aI5
aI7
aI10
aI13
aI13
aI13
aI11
aI14
aI14
aI17
aI13
aI14
aI13
aI17
aI15
aI17
aa(lp722
I6
aI1
aI5
aI4
aI6
aI6
aI9
aI12
aI8
aI10
aI13
aI13
aI13
aI16
aI15
aI18
aI18
aI17
aI13
aI18
aa(lp723
I4
aI4
aI9
aI7
aI8
aI9
aI11
aI14
aI14
aI18
aI16
aI13
aI14
aI16
aI14
aI15
aI15
aI13
aI16
aI17
aa(lp724
I4
aI4
aI8
aI10
aI8
aI10
aI11
aI14
aI13
aI14
aI14
aI18
aI13
aI13
aI14
aI13
aI17
aI16
aI15
aI15
aa(lp725
I2
aI2
aI3
aI2
aI7
aI7
aI6
aI9
aI10
aI7
aI8
aI13
aI14
aI10
aI11
aI18
aI15
aI16
aI15
aI13
aa(lp726
I5
aI2
aI6
aI4
aI3
aI4
aI5
aI4
aI7
aI4
aI4
aI5
aI5
aI8
aI8
aI8
aI7
aI12
aI10
aI14
aa(lp727
I4
aI9
aI4
aI8
aI12
aI11
aI11
aI16
aI14
aI17
aI15
aI14
aI18
aI18
aI18
aI16
aI13
aI17
aI17
aI17
aa(lp728
I2
aI5
aI3
aI3
aI6
aI6
aI5
aI8
aI12
aI12
aI10
aI12
aI15
aI14
aI17
aI14
aI17
aI16
aI15
aI13
aa(lp729
I4
aI1
aI7
aI4
aI11
aI14
aI12
aI12
aI13
aI13
aI12
aI12
aI12
aI12
aI13
aI12
aI13
aI16
aI16
aI13
aa(lp730
I5
aI5
aI8
aI9
aI13
aI12
aI11
aI15
aI11
aI13
aI15
aI10
aI16
aI17
aI15
aI18
aI13
aI15
aI13
aI16
aa(lp731
I5
aI7
aI6
aI4
aI11
aI13
aI11
aI14
aI18
aI14
aI15
aI13
aI17
aI13
aI17
aI14
aI14
aI15
aI13
aI18
aa(lp732
I1
aI4
aI9
aI9
aI5
aI4
aI8
aI7
aI8
aI11
aI8
aI10
aI15
aI14
aI14
aI17
aI16
aI17
aI17
aI16
aa(lp733
I4
aI4
aI3
aI3
aI4
aI11
aI8
aI9
aI12
aI9
aI14
aI13
aI13
aI15
aI12
aI11
aI11
aI10
aI10
aI13
aa(lp734
I1
aI5
aI8
aI9
aI7
aI11
aI8
aI9
aI8
aI11
aI9
aI9
aI11
aI15
aI12
aI10
aI15
aI18
aI16
aI13
aa(lp735
I4
aI8
aI6
aI11
aI15
aI13
aI10
aI14
aI11
aI11
aI13
aI10
aI11
aI11
aI15
aI16
aI17
aI17
aI17
aI15
aa(lp736
I5
aI4
aI4
aI6
aI10
aI9
aI15
aI12
aI17
aI14
aI18
aI15
aI13
aI15
aI14
aI16
aI15
aI14
aI16
aI17
aa(lp737
I6
aI7
aI8
aI7
aI7
aI10
aI7
aI8
aI7
aI15
aI13
aI12
aI10
aI14
aI14
aI11
aI10
aI14
aI18
aI13
aa(lp738
I1
aI6
aI8
aI8
aI9
aI12
aI16
aI18
aI18
aI13
aI13
aI14
aI16
aI16
aI16
aI17
aI18
aI15
aI16
aI17
aa(lp739
I4
aI1
aI4
aI7
aI6
aI9
aI11
aI11
aI11
aI15
aI14
aI10
aI11
aI11
aI15
aI15
aI12
aI11
aI12
aI10
aa(lp740
I5
aI2
aI4
aI6
aI11
aI9
aI11
aI8
aI10
aI11
aI17
aI14
aI17
aI16
aI17
aI15
aI17
aI18
aI13
aI16
aa(lp741
I5
aI4
aI6
aI10
aI11
aI7
aI10
aI14
aI10
aI14
aI16
aI18
aI13
aI16
aI17
aI18
aI16
aI15
aI18
aI18
aa(lp742
I5
aI5
aI5
aI12
aI15
aI15
aI10
aI12
aI12
aI15
aI18
aI17
aI16
aI13
aI13
aI14
aI18
aI18
aI15
aI17
aa(lp743
I3
aI6
aI5
aI4
aI7
aI7
aI7
aI12
aI8
aI10
aI12
aI12
aI12
aI13
aI11
aI14
aI14
aI14
aI15
aI14
aa(lp744
I6
aI4
aI6
aI5
aI4
aI5
aI2
aI4
aI4
aI11
aI12
aI10
aI10
aI11
aI11
aI10
aI14
aI10
aI11
aI10
aa(lp745
I2
aI9
aI6
aI8
aI5
aI7
aI5
aI11
aI13
aI14
aI12
aI14
aI11
aI11
aI11
aI11
aI13
aI10
aI15
aI15
aa(lp746
I6
aI4
aI9
aI5
aI8
aI11
aI14
aI13
aI15
aI11
aI11
aI12
aI14
aI13
aI13
aI15
aI14
aI15
aI14
aI13
aa(lp747
I1
aI7
aI7
aI12
aI16
aI17
aI14
aI14
aI16
aI18
aI17
aI18
aI18
aI16
aI16
aI16
aI18
aI17
aI14
aI17
aa(lp748
I2
aI7
aI6
aI7
aI9
aI11
aI15
aI10
aI17
aI14
aI14
aI15
aI16
aI13
aI14
aI14
aI13
aI14
aI16
aI18
aa(lp749
I1
aI2
aI2
aI7
aI7
aI9
aI6
aI4
aI4
aI4
aI4
aI5
aI9
aI15
aI13
aI12
aI12
aI16
aI14
aI18
aa(lp750
I1
aI6
aI4
aI7
aI11
aI10
aI12
aI11
aI14
aI18
aI16
aI15
aI17
aI13
aI13
aI13
aI17
aI18
aI18
aI17
aa(lp751
I2
aI4
aI9
aI8
aI9
aI10
aI10
aI7
aI13
aI14
aI14
aI14
aI17
aI17
aI13
aI16
aI18
aI13
aI15
aI14
aa(lp752
I6
aI1
aI5
aI6
aI8
aI12
aI8
aI10
aI9
aI8
aI9
aI12
aI15
aI13
aI13
aI17
aI18
aI18
aI15
aI14
aa(lp753
I2
aI4
aI4
aI12
aI9
aI9
aI11
aI10
aI10
aI17
aI15
aI13
aI15
aI14
aI13
aI14
aI17
aI14
aI18
aI13
aa(lp754
I5
aI6
aI12
aI10
aI9
aI10
aI8
aI7
aI13
aI15
aI11
aI17
aI18
aI17
aI16
aI13
aI17
aI13
aI18
aI16
aa(lp755
I5
aI6
aI1
aI8
aI6
aI5
aI6
aI8
aI7
aI8
aI11
aI8
aI11
aI11
aI11
aI10
aI7
aI8
aI12
aI8
aa(lp756
I3
aI2
aI5
aI5
aI8
aI8
aI12
aI15
aI16
aI17
aI16
aI15
aI18
aI16
aI15
aI18
aI17
aI14
aI18
aI18
aa(lp757
I1
aI7
aI8
aI11
aI11
aI7
aI8
aI7
aI12
aI9
aI12
aI9
aI14
aI12
aI10
aI15
aI17
aI14
aI16
aI18
aa(lp758
I3
aI5
aI5
aI8
aI7
aI7
aI9
aI9
aI14
aI12
aI15
aI11
aI13
aI11
aI15
aI13
aI15
aI15
aI15
aI14
aa(lp759
I2
aI4
aI9
aI7
aI10
aI7
aI9
aI9
aI11
aI14
aI11
aI15
aI16
aI14
aI17
aI17
aI15
aI14
aI13
aI17
aa(lp760
I6
aI4
aI9
aI11
aI13
aI10
aI18
aI15
aI13
aI14
aI13
aI13
aI17
aI15
aI15
aI16
aI14
aI13
aI14
aI16
aa(lp761
I1
aI4
aI5
aI1
aI7
aI5
aI4
aI12
aI9
aI9
aI11
aI12
aI11
aI7
aI7
aI10
aI14
aI14
aI12
aI12
aa(lp762
I1
aI4
aI8
aI9
aI4
aI6
aI8
aI9
aI12
aI10
aI13
aI10
aI11
aI11
aI14
aI14
aI18
aI15
aI17
aI17
aa(lp763
I5
aI5
aI1
aI2
aI3
aI5
aI12
aI10
aI8
aI7
aI10
aI7
aI7
aI10
aI9
aI11
aI11
aI12
aI14
aI14
aa(lp764
I2
aI5
aI5
aI7
aI10
aI9
aI9
aI10
aI7
aI10
aI12
aI15
aI11
aI13
aI15
aI18
aI14
aI18
aI16
aI17
aa(lp765
I6
aI7
aI7
aI8
aI4
aI9
aI9
aI9
aI8
aI5
aI7
aI12
aI14
aI10
aI13
aI14
aI15
aI15
aI10
aI14
aa(lp766
I2
aI1
aI5
aI7
aI11
aI10
aI11
aI11
aI11
aI7
aI15
aI10
aI14
aI13
aI17
aI15
aI14
aI18
aI17
aI17
aa(lp767
I1
aI4
aI8
aI4
aI8
aI10
aI8
aI7
aI11
aI14
aI14
aI11
aI12
aI15
aI14
aI18
aI13
aI13
aI14
aI17
aa(lp768
I3
aI5
aI6
aI5
aI7
aI7
aI9
aI12
aI14
aI14
aI12
aI11
aI13
aI17
aI18
aI17
aI13
aI14
aI18
aI16
aa(lp769
I5
aI4
aI9
aI9
aI12
aI12
aI9
aI11
aI11
aI10
aI11
aI12
aI13
aI13
aI18
aI18
aI18
aI14
aI17
aI16
aa(lp770
I6
aI2
aI6
aI12
aI15
aI11
aI12
aI13
aI13
aI10
aI15
aI12
aI12
aI14
aI14
aI10
aI14
aI17
aI17
aI15
aa(lp771
I5
aI5
aI7
aI5
aI4
aI9
aI4
aI7
aI8
aI7
aI7
aI12
aI12
aI11
aI8
aI11
aI11
aI12
aI11
aI12
aa(lp772
I3
aI7
aI11
aI11
aI7
aI10
aI10
aI7
aI9
aI12
aI13
aI12
aI14
aI14
aI14
aI15
aI13
aI14
aI18
aI16
aa(lp773
I6
aI7
aI5
aI10
aI9
aI12
aI13
aI11
aI14
aI18
aI16
aI17
aI13
aI15
aI14
aI17
aI15
aI18
aI18
aI16
aa(lp774
I2
aI4
aI7
aI7
aI7
aI12
aI7
aI9
aI11
aI10
aI11
aI13
aI14
aI12
aI10
aI14
aI13
aI12
aI15
aI13
aa(lp775
I3
aI6
aI9
aI8
aI11
aI12
aI12
aI8
aI10
aI8
aI14
aI12
aI11
aI17
aI17
aI18
aI18
aI15
aI17
aI14
aa(lp776
I3
aI6
aI3
aI3
aI4
aI8
aI10
aI8
aI12
aI10
aI18
aI14
aI15
aI16
aI15
aI14
aI16
aI14
aI14
aI13
aa(lp777
I4
aI1
aI6
aI8
aI8
aI9
aI10
aI15
aI15
aI17
aI17
aI16
aI17
aI13
aI14
aI14
aI13
aI17
aI18
aI14
aa(lp778
I5
aI8
aI8
aI8
aI7
aI9
aI7
aI10
aI11
aI11
aI12
aI15
aI17
aI15
aI18
aI15
aI17
aI16
aI17
aI14
aa(lp779
I5
aI2
aI6
aI9
aI9
aI6
aI5
aI12
aI12
aI11
aI7
aI8
aI8
aI11
aI9
aI12
aI10
aI13
aI18
aI13
aa(lp780
I5
aI5
aI9
aI7
aI10
aI7
aI9
aI7
aI10
aI11
aI12
aI15
aI15
aI15
aI18
aI15
aI16
aI13
aI17
aI14
aa(lp781
I1
aI6
aI8
aI9
aI7
aI9
aI8
aI11
aI10
aI15
aI13
aI10
aI12
aI12
aI13
aI16
aI14
aI18
aI15
aI14
aa(lp782
I6
aI1
aI7
aI11
aI12
aI13
aI18
aI13
aI16
aI17
aI17
aI16
aI15
aI13
aI13
aI13
aI17
aI13
aI14
aI14
aa(lp783
I4
aI6
aI10
aI10
aI11
aI13
aI10
aI14
aI15
aI15
aI13
aI16
aI18
aI17
aI16
aI18
aI17
aI15
aI16
aI18
aa(lp784
I2
aI4
aI4
aI11
aI8
aI12
aI14
aI16
aI14
aI18
aI18
aI18
aI14
aI13
aI17
aI18
aI17
aI18
aI16
aI14
aa(lp785
I2
aI8
aI7
aI7
aI8
aI12
aI8
aI11
aI8
aI12
aI12
aI13
aI13
aI15
aI14
aI17
aI14
aI16
aI17
aI13
aa(lp786
I1
aI7
aI8
aI7
aI7
aI12
aI10
aI13
aI13
aI14
aI14
aI14
aI14
aI13
aI13
aI14
aI15
aI16
aI15
aI15
aa(lp787
I2
aI6
aI4
aI4
aI9
aI9
aI9
aI4
aI7
aI12
aI14
aI17
aI13
aI14
aI17
aI17
aI13
aI18
aI15
aI14
aa(lp788
I6
aI4
aI4
aI9
aI4
aI8
aI5
aI8
aI11
aI12
aI7
aI12
aI11
aI15
aI17
aI17
aI14
aI18
aI13
aI13
aa(lp789
I3
aI7
aI8
aI8
aI11
aI17
aI13
aI13
aI15
aI18
aI13
aI13
aI14
aI13
aI17
aI16
aI15
aI14
aI15
aI16
aa(lp790
I4
aI7
aI10
aI13
aI12
aI13
aI13
aI12
aI15
aI11
aI12
aI16
aI14
aI16
aI15
aI18
aI14
aI15
aI13
aI17
aa(lp791
I1
aI6
aI8
aI12
aI10
aI13
aI12
aI18
aI18
aI15
aI15
aI16
aI17
aI13
aI13
aI17
aI15
aI16
aI15
aI14
aa(lp792
I6
aI2
aI4
aI7
aI8
aI6
aI7
aI8
aI7
aI5
aI5
aI4
aI5
aI5
aI4
aI8
aI14
aI18
aI18
aI13
aa(lp793
I3
aI5
aI5
aI8
aI12
aI12
aI11
aI11
aI12
aI15
aI14
aI15
aI14
aI15
aI15
aI16
aI17
aI14
aI13
aI16
aa(lp794
I6
aI4
aI9
aI7
aI8
aI12
aI12
aI13
aI13
aI16
aI16
aI18
aI16
aI17
aI14
aI16
aI13
aI15
aI16
aI18
aa(lp795
I4
aI9
aI7
aI7
aI9
aI4
aI7
aI4
aI8
aI9
aI9
aI7
aI12
aI7
aI10
aI11
aI7
aI15
aI12
aI14
aa(lp796
I5
aI8
aI8
aI8
aI10
aI14
aI14
aI10
aI13
aI14
aI14
aI12
aI18
aI17
aI17
aI16
aI16
aI15
aI14
aI17
aa(lp797
I1
aI7
aI5
aI8
aI9
aI4
aI7
aI4
aI9
aI7
aI9
aI8
aI10
aI8
aI12
aI12
aI11
aI14
aI11
aI14
aa(lp798
I4
aI3
aI5
aI5
aI11
aI12
aI8
aI9
aI8
aI13
aI10
aI14
aI16
aI17
aI16
aI17
aI14
aI17
aI18
aI14
aa(lp799
I2
aI4
aI4
aI9
aI8
aI11
aI10
aI9
aI7
aI7
aI9
aI10
aI12
aI7
aI8
aI8
aI7
aI10
aI11
aI10
aa(lp800
I4
aI7
aI11
aI7
aI10
aI10
aI11
aI11
aI14
aI13
aI11
aI14
aI15
aI14
aI11
aI12
aI15
aI12
aI11
aI17
aa(lp801
I5
aI8
aI9
aI11
aI11
aI15
aI11
aI15
aI17
aI15
aI17
aI14
aI16
aI13
aI17
aI13
aI15
aI15
aI14
aI16
aa(lp802
I5
aI5
aI5
aI5
aI11
aI14
aI17
aI17
aI13
aI17
aI17
aI14
aI17
aI17
aI17
aI15
aI14
aI18
aI13
aI17
aa(lp803
I1
aI6
aI5
aI7
aI7
aI7
aI7
aI10
aI10
aI8
aI13
aI11
aI15
aI13
aI17
aI15
aI16
aI13
aI17
aI14
aa(lp804
I3
aI2
aI5
aI6
aI8
aI11
aI10
aI12
aI12
aI15
aI10
aI13
aI13
aI13
aI16
aI16
aI14
aI15
aI17
aI14
aa(lp805
I5
aI4
aI4
aI5
aI11
aI9
aI9
aI9
aI9
aI8
aI10
aI9
aI12
aI10
aI14
aI14
aI13
aI11
aI15
aI18
aa(lp806
I3
aI3
aI8
aI5
aI12
aI8
aI8
aI8
aI8
aI10
aI14
aI12
aI12
aI15
aI13
aI11
aI11
aI10
aI15
aI14
aa(lp807
I2
aI5
aI3
aI5
aI12
aI11
aI10
aI11
aI15
aI12
aI15
aI13
aI16
aI16
aI15
aI17
aI13
aI15
aI14
aI17
aa(lp808
I3
aI6
aI7
aI9
aI12
aI8
aI11
aI8
aI9
aI12
aI15
aI10
aI10
aI15
aI18
aI15
aI16
aI18
aI13
aI15
aa(lp809
I4
aI5
aI6
aI10
aI11
aI8
aI10
aI7
aI14
aI10
aI14
aI17
aI18
aI15
aI13
aI15
aI17
aI15
aI18
aI16
aa(lp810
I4
aI5
aI5
aI9
aI7
aI7
aI8
aI12
aI10
aI13
aI13
aI15
aI17
aI13
aI13
aI17
aI16
aI14
aI16
aI15
aa(lp811
I5
aI2
aI2
aI8
aI8
aI11
aI7
aI10
aI12
aI13
aI14
aI16
aI15
aI15
aI13
aI15
aI17
aI18
aI18
aI13
aa(lp812
I6
aI8
aI8
aI5
aI10
aI7
aI8
aI7
aI9
aI9
aI8
aI8
aI11
aI10
aI13
aI13
aI14
aI14
aI14
aI14
aa(lp813
I3
aI4
aI11
aI11
aI10
aI11
aI10
aI18
aI18
aI17
aI18
aI14
aI15
aI16
aI14
aI15
aI13
aI14
aI14
aI15
aa(lp814
I6
aI4
aI4
aI7
aI5
aI8
aI11
aI10
aI11
aI9
aI11
aI11
aI14
aI14
aI18
aI13
aI18
aI13
aI15
aI14
aa(lp815
I3
aI7
aI7
aI9
aI9
aI12
aI12
aI13
aI13
aI15
aI17
aI14
aI17
aI18
aI16
aI18
aI14
aI18
aI16
aI18
aa(lp816
I3
aI9
aI9
aI9
aI10
aI15
aI14
aI15
aI11
aI14
aI12
aI15
aI15
aI13
aI11
aI13
aI14
aI14
aI16
aI18
aa(lp817
I5
aI5
aI12
aI11
aI14
aI15
aI18
aI16
aI13
aI15
aI18
aI17
aI17
aI13
aI13
aI14
aI18
aI18
aI14
aI13
aa(lp818
I6
aI6
aI8
aI12
aI12
aI11
aI11
aI9
aI15
aI16
aI14
aI16
aI15
aI14
aI17
aI15
aI16
aI16
aI13
aI15
aa(lp819
I6
aI6
aI7
aI6
aI7
aI8
aI7
aI13
aI13
aI14
aI11
aI13
aI13
aI14
aI12
aI15
aI17
aI18
aI17
aI14
aa(lp820
I1
aI2
aI2
aI6
aI7
aI7
aI12
aI8
aI9
aI11
aI15
aI10
aI14
aI17
aI14
aI18
aI15
aI13
aI18
aI13
aa(lp821
I1
aI1
aI6
aI11
aI9
aI14
aI10
aI12
aI11
aI14
aI11
aI18
aI13
aI15
aI16
aI14
aI18
aI16
aI16
aI13
aa(lp822
I3
aI6
aI9
aI5
aI4
aI8
aI11
aI14
aI12
aI10
aI15
aI11
aI13
aI11
aI10
aI10
aI15
aI15
aI10
aI10
aa(lp823
I2
aI6
aI9
aI13
aI14
aI12
aI10
aI12
aI10
aI15
aI13
aI15
aI15
aI15
aI14
aI15
aI14
aI18
aI15
aI17
aa(lp824
I3
aI6
aI8
aI9
aI8
aI10
aI14
aI11
aI14
aI16
aI16
aI15
aI17
aI17
aI13
aI14
aI17
aI16
aI15
aI16
aa(lp825
I6
aI4
aI8
aI6
aI9
aI5
aI5
aI8
aI5
aI4
aI8
aI15
aI14
aI13
aI14
aI17
aI13
aI14
aI17
aI15
aa(lp826
I2
aI5
aI8
aI7
aI7
aI10
aI18
aI13
aI15
aI18
aI13
aI17
aI18
aI13
aI13
aI18
aI18
aI15
aI16
aI17
aa(lp827
I1
aI5
aI7
aI11
aI13
aI12
aI10
aI15
aI12
aI18
aI15
aI13
aI17
aI18
aI15
aI18
aI17
aI14
aI14
aI17
aa(lp828
I2
aI2
aI1
aI6
aI4
aI8
aI14
aI14
aI13
aI10
aI13
aI13
aI14
aI11
aI14
aI14
aI18
aI13
aI15
aI14
aa(lp829
I2
aI4
aI2
aI4
aI5
aI6
aI12
aI13
aI18
aI13
aI17
aI18
aI14
aI14
aI18
aI15
aI17
aI14
aI17
aI18
aa(lp830
I6
aI5
aI9
aI4
aI9
aI12
aI15
aI14
aI12
aI16
aI13
aI14
aI14
aI13
aI14
aI14
aI16
aI16
aI18
aI14
aa(lp831
I5
aI6
aI6
aI4
aI4
aI8
aI7
aI5
aI8
aI6
aI7
aI12
aI12
aI15
aI17
aI14
aI16
aI16
aI13
aI15
aa(lp832
I4
aI8
aI7
aI11
aI13
aI13
aI16
aI18
aI15
aI18
aI17
aI16
aI13
aI14
aI17
aI16
aI13
aI18
aI14
aI18
aa(lp833
I2
aI6
aI9
aI8
aI6
aI5
aI5
aI12
aI11
aI11
aI7
aI14
aI16
aI18
aI16
aI17
aI15
aI15
aI15
aI15
aa(lp834
I1
aI6
aI8
aI9
aI7
aI4
aI8
aI9
aI9
aI10
aI12
aI10
aI12
aI11
aI12
aI11
aI7
aI11
aI7
aI11
aa(lp835
I3
aI7
aI7
aI9
aI7
aI12
aI7
aI12
aI10
aI17
aI17
aI15
aI18
aI13
aI14
aI14
aI18
aI13
aI16
aI15
aa(lp836
I4
aI6
aI4
aI9
aI11
aI8
aI9
aI15
aI17
aI16
aI17
aI17
aI18
aI13
aI17
aI18
aI17
aI17
aI15
aI13
aa(lp837
I3
aI1
aI6
aI6
aI6
aI11
aI7
aI8
aI8
aI11
aI13
aI10
aI14
aI13
aI18
aI16
aI18
aI18
aI13
aI16
aa(lp838
I2
aI4
aI7
aI7
aI9
aI7
aI11
aI10
aI7
aI9
aI8
aI8
aI11
aI9
aI9
aI8
aI14
aI13
aI12
aI10
aa(lp839
I4
aI9
aI10
aI12
aI11
aI14
aI17
aI15
aI14
aI18
aI14
aI14
aI15
aI13
aI16
aI15
aI14
aI15
aI16
aI14
aa(lp840
I5
aI5
aI9
aI10
aI14
aI14
aI15
aI14
aI14
aI17
aI17
aI14
aI18
aI17
aI14
aI14
aI16
aI15
aI18
aI13
aa(lp841
I5
aI3
aI4
aI10
aI10
aI11
aI12
aI8
aI9
aI7
aI8
aI13
aI11
aI10
aI14
aI13
aI10
aI12
aI15
aI10
aa(lp842
I2
aI2
aI3
aI3
aI1
aI4
aI9
aI10
aI10
aI10
aI10
aI13
aI13
aI11
aI10
aI11
aI12
aI15
aI15
aI10
aa(lp843
I2
aI2
aI5
aI2
aI7
aI5
aI7
aI8
aI12
aI7
aI13
aI14
aI12
aI13
aI12
aI11
aI15
aI16
aI16
aI16
aa(lp844
I4
aI8
aI5
aI5
aI8
aI6
aI4
aI8
aI5
aI8
aI4
aI8
aI5
aI6
aI9
aI11
aI7
aI9
aI11
aI10
aa(lp845
I3
aI2
aI4
aI4
aI9
aI11
aI13
aI15
aI14
aI11
aI10
aI12
aI10
aI12
aI15
aI13
aI13
aI12
aI12
aI12
aa(lp846
I3
aI4
aI2
aI5
aI5
aI4
aI4
aI4
aI8
aI8
aI9
aI11
aI15
aI15
aI14
aI13
aI13
aI18
aI13
aI13
aa(lp847
I1
aI5
aI6
aI7
aI7
aI5
aI4
aI4
aI10
aI13
aI15
aI11
aI14
aI16
aI17
aI14
aI16
aI15
aI14
aI14
aa(lp848
I3
aI1
aI1
aI4
aI7
aI9
aI11
aI7
aI7
aI9
aI9
aI11
aI9
aI10
aI10
aI11
aI10
aI13
aI13
aI10
aa(lp849
I1
aI8
aI8
aI4
aI9
aI8
aI8
aI7
aI9
aI9
aI14
aI14
aI11
aI15
aI15
aI14
aI15
aI11
aI10
aI15
aa(lp850
I2
aI7
aI11
aI10
aI13
aI14
aI12
aI10
aI12
aI12
aI17
aI16
aI13
aI13
aI17
aI17
aI13
aI14
aI16
aI18
aa(lp851
I6
aI1
aI3
aI9
aI11
aI12
aI10
aI7
aI9
aI11
aI8
aI11
aI12
aI11
aI9
aI12
aI15
aI16
aI15
aI15
aa(lp852
I3
aI6
aI7
aI12
aI8
aI11
aI13
aI11
aI12
aI15
aI11
aI10
aI17
aI17
aI16
aI13
aI14
aI13
aI15
aI13
aa(lp853
I5
aI4
aI6
aI4
aI9
aI10
aI15
aI13
aI13
aI15
aI15
aI15
aI15
aI14
aI14
aI18
aI16
aI14
aI16
aI16
aa(lp854
I3
aI4
aI7
aI7
aI8
aI8
aI7
aI7
aI13
aI13
aI13
aI15
aI12
aI11
aI10
aI11
aI17
aI15
aI16
aI14
aa(lp855
I4
aI7
aI4
aI4
aI7
aI11
aI12
aI12
aI8
aI9
aI11
aI8
aI8
aI15
aI10
aI12
aI11
aI14
aI15
aI15
aa(lp856
I2
aI5
aI4
aI9
aI5
aI9
aI12
aI10
aI12
aI11
aI7
aI12
aI11
aI10
aI13
aI13
aI14
aI14
aI14
aI18
aa(lp857
I1
aI4
aI5
aI8
aI14
aI11
aI11
aI17
aI14
aI13
aI13
aI13
aI17
aI15
aI14
aI16
aI15
aI13
aI18
aI13
aa(lp858
I6
aI2
aI6
aI5
aI10
aI8
aI7
aI12
aI8
aI10
aI10
aI7
aI10
aI11
aI14
aI14
aI16
aI16
aI13
aI17
aa(lp859
I6
aI4
aI3
aI4
aI7
aI7
aI10
aI7
aI12
aI13
aI16
aI15
aI14
aI13
aI17
aI16
aI14
aI15
aI16
aI13
aa(lp860
I1
aI1
aI8
aI12
aI12
aI7
aI10
aI7
aI7
aI7
aI9
aI10
aI7
aI8
aI9
aI10
aI13
aI17
aI14
aI13
aa(lp861
I1
aI7
aI12
aI8
aI10
aI11
aI12
aI10
aI15
aI16
aI16
aI13
aI13
aI16
aI14
aI13
aI16
aI18
aI17
aI13
aa(lp862
I6
aI5
aI12
aI12
aI11
aI8
aI10
aI16
aI15
aI18
aI16
aI13
aI13
aI18
aI18
aI14
aI17
aI15
aI16
aI17
aa(lp863
I3
aI8
aI7
aI8
aI9
aI7
aI11
aI7
aI12
aI11
aI15
aI10
aI12
aI14
aI16
aI15
aI13
aI14
aI14
aI14
aa(lp864
I5
aI5
aI7
aI8
aI11
aI8
aI8
aI10
aI9
aI12
aI7
aI8
aI7
aI9
aI13
aI10
aI12
aI18
aI17
aI15
aa(lp865
I2
aI1
aI6
aI7
aI5
aI8
aI8
aI11
aI10
aI13
aI15
aI17
aI18
aI15
aI18
aI18
aI16
aI16
aI13
aI13
aa(lp866
I6
aI6
aI6
aI7
aI11
aI10
aI14
aI14
aI12
aI14
aI11
aI12
aI13
aI17
aI14
aI14
aI18
aI18
aI13
aI18
aa(lp867
I2
aI4
aI7
aI9
aI10
aI9
aI7
aI12
aI15
aI13
aI14
aI12
aI11
aI15
aI15
aI11
aI16
aI18
aI18
aI16
aa(lp868
I1
aI1
aI6
aI4
aI6
aI5
aI10
aI11
aI7
aI11
aI10
aI10
aI11
aI13
aI10
aI18
aI17
aI13
aI17
aI14
aa(lp869
I6
aI5
aI10
aI12
aI7
aI13
aI14
aI15
aI15
aI14
aI12
aI16
aI14
aI14
aI18
aI17
aI15
aI17
aI13
aI17
aa(lp870
I1
aI6
aI7
aI5
aI6
aI12
aI12
aI9
aI14
aI11
aI12
aI14
aI14
aI10
aI12
aI11
aI13
aI16
aI16
aI14
aa(lp871
I2
aI5
aI6
aI7
aI10
aI11
aI10
aI14
aI10
aI14
aI15
aI10
aI15
aI14
aI11
aI15
aI13
aI10
aI13
aI11
aa(lp872
I1
aI7
aI8
aI9
aI7
aI11
aI9
aI10
aI7
aI11
aI10
aI15
aI13
aI16
aI17
aI17
aI16
aI13
aI18
aI17
aa(lp873
I3
aI4
aI10
aI11
aI7
aI10
aI10
aI10
aI10
aI8
aI11
aI10
aI17
aI17
aI16
aI16
aI13
aI18
aI17
aI16
aa(lp874
I3
aI8
aI9
aI8
aI12
aI10
aI14
aI12
aI13
aI15
aI14
aI12
aI14
aI14
aI15
aI14
aI15
aI13
aI18
aI16
aa(lp875
I5
aI6
aI7
aI9
aI7
aI10
aI12
aI16
aI17
aI13
aI17
aI15
aI18
aI14
aI18
aI14
aI16
aI15
aI15
aI13
aa(lp876
I2
aI4
aI9
aI7
aI10
aI12
aI12
aI14
aI15
aI11
aI13
aI14
aI13
aI14
aI10
aI15
aI10
aI13
aI14
aI11
aa(lp877
I4
aI7
aI6
aI7
aI4
aI8
aI12
aI9
aI7
aI13
aI11
aI12
aI12
aI15
aI13
aI18
aI14
aI18
aI16
aI17
aa(lp878
I2
aI9
aI4
aI7
aI7
aI11
aI14
aI15
aI13
aI18
aI16
aI13
aI16
aI15
aI15
aI15
aI13
aI18
aI16
aI13
aa(lp879
I3
aI6
aI7
aI12
aI8
aI9
aI11
aI15
aI18
aI17
aI15
aI15
aI13
aI16
aI14
aI17
aI14
aI14
aI13
aI16
aa(lp880
I5
aI7
aI8
aI12
aI9
aI12
aI12
aI11
aI14
aI15
aI15
aI13
aI17
aI13
aI13
aI16
aI17
aI17
aI18
aI14
aa(lp881
I6
aI5
aI5
aI4
aI8
aI5
aI8
aI9
aI7
aI13
aI16
aI14
aI17
aI16
aI15
aI15
aI18
aI17
aI18
aI17
aa(lp882
I4
aI1
aI2
aI6
aI1
aI4
aI9
aI4
aI5
aI8
aI6
aI9
aI12
aI9
aI10
aI14
aI11
aI14
aI14
aI16
aa(lp883
I6
aI9
aI7
aI6
aI7
aI9
aI8
aI12
aI11
aI7
aI10
aI14
aI16
aI18
aI14
aI16
aI14
aI18
aI15
aI18
aa(lp884
I5
aI9
aI7
aI4
aI4
aI5
aI9
aI7
aI8
aI15
aI11
aI17
aI15
aI15
aI18
aI18
aI13
aI14
aI15
aI16
aa(lp885
I1
aI4
aI7
aI7
aI8
aI12
aI9
aI12
aI15
aI12
aI17
aI18
aI14
aI17
aI18
aI13
aI13
aI17
aI14
aI13
aa(lp886
I3
aI2
aI5
aI7
aI10
aI14
aI10
aI10
aI14
aI17
aI15
aI13
aI15
aI18
aI14
aI16
aI13
aI14
aI18
aI14
aa(lp887
I5
aI6
aI9
aI8
aI8
aI9
aI5
aI4
aI12
aI13
aI14
aI17
aI18
aI14
aI16
aI13
aI14
aI14
aI15
aI18
aa(lp888
I5
aI4
aI6
aI8
aI10
aI9
aI11
aI12
aI15
aI12
aI16
aI14
aI15
aI18
aI18
aI13
aI18
aI13
aI13
aI16
aa(lp889
I6
aI9
aI7
aI11
aI14
aI11
aI17
aI18
aI16
aI13
aI16
aI18
aI17
aI18
aI18
aI17
aI16
aI14
aI15
aI15
aa(lp890
I3
aI6
aI5
aI9
aI9
aI6
aI9
aI9
aI12
aI11
aI12
aI15
aI18
aI15
aI17
aI13
aI16
aI16
aI13
aI17
aa(lp891
I5
aI4
aI8
aI5
aI8
aI4
aI12
aI8
aI10
aI12
aI15
aI16
aI13
aI17
aI14
aI13
aI14
aI13
aI14
aI14
aa(lp892
I3
aI6
aI4
aI6
aI5
aI7
aI11
aI9
aI11
aI12
aI12
aI10
aI15
aI17
aI15
aI18
aI16
aI14
aI15
aI15
aa(lp893
I2
aI4
aI5
aI10
aI11
aI12
aI9
aI14
aI12
aI13
aI11
aI11
aI14
aI15
aI15
aI13
aI13
aI12
aI14
aI12
aa(lp894
I6
aI4
aI4
aI5
aI7
aI4
aI8
aI8
aI4
aI5
aI8
aI7
aI8
aI12
aI12
aI7
aI8
aI8
aI11
aI11
aa(lp895
I3
aI5
aI5
aI10
aI11
aI11
aI13
aI18
aI18
aI13
aI16
aI13
aI18
aI15
aI14
aI14
aI15
aI15
aI13
aI14
aa(lp896
I2
aI4
aI9
aI14
aI14
aI12
aI15
aI16
aI14
aI17
aI18
aI17
aI14
aI13
aI15
aI17
aI14
aI13
aI14
aI18
aa(lp897
I3
aI1
aI7
aI9
aI10
aI12
aI12
aI11
aI10
aI18
aI14
aI16
aI15
aI13
aI15
aI16
aI17
aI13
aI18
aI15
aa(lp898
I4
aI7
aI9
aI7
aI4
aI5
aI6
aI9
aI4
aI7
aI12
aI12
aI9
aI7
aI13
aI15
aI12
aI12
aI11
aI14
aa(lp899
I6
aI6
aI4
aI8
aI8
aI12
aI9
aI12
aI11
aI14
aI11
aI13
aI12
aI13
aI16
aI15
aI17
aI13
aI18
aI16
aa(lp900
I1
aI9
aI9
aI9
aI9
aI7
aI9
aI8
aI5
aI7
aI11
aI10
aI17
aI14
aI18
aI13
aI17
aI18
aI15
aI15
aa(lp901
I4
aI4
aI5
aI5
aI2
aI5
aI11
aI12
aI11
aI10
aI14
aI16
aI14
aI18
aI18
aI16
aI18
aI17
aI16
aI15
aa(lp902
I6
aI4
aI7
aI9
aI9
aI8
aI12
aI7
aI14
aI10
aI18
aI13
aI18
aI14
aI15
aI17
aI14
aI16
aI13
aI18
aa(lp903
I2
aI8
aI10
aI10
aI13
aI11
aI14
aI15
aI15
aI15
aI18
aI17
aI16
aI16
aI15
aI16
aI16
aI14
aI18
aI17
aa(lp904
I5
aI5
aI9
aI4
aI8
aI6
aI6
aI7
aI11
aI10
aI10
aI12
aI15
aI14
aI18
aI17
aI17
aI17
aI14
aI14
aa(lp905
I6
aI5
aI6
aI7
aI8
aI8
aI8
aI11
aI9
aI9
aI7
aI8
aI14
aI14
aI11
aI14
aI15
aI14
aI16
aI16
aa(lp906
I2
aI5
aI7
aI8
aI4
aI5
aI9
aI8
aI8
aI9
aI4
aI10
aI9
aI10
aI10
aI10
aI11
aI12
aI13
aI13
aa(lp907
I6
aI6
aI4
aI9
aI11
aI13
aI13
aI10
aI15
aI16
aI17
aI14
aI13
aI18
aI17
aI14
aI18
aI18
aI18
aI17
aa(lp908
I6
aI9
aI9
aI8
aI11
aI11
aI10
aI12
aI11
aI15
aI17
aI14
aI13
aI14
aI16
aI18
aI17
aI16
aI16
aI15
aa(lp909
I6
aI5
aI9
aI8
aI7
aI9
aI12
aI11
aI12
aI16
aI17
aI13
aI16
aI14
aI16
aI18
aI18
aI14
aI16
aI18
aa(lp910
I2
aI2
aI5
aI3
aI1
aI3
aI5
aI9
aI7
aI5
aI7
aI11
aI9
aI10
aI11
aI7
aI10
aI11
aI14
aI15
aa(lp911
I5
aI6
aI2
aI4
aI4
aI9
aI12
aI17
aI13
aI18
aI16
aI13
aI14
aI13
aI18
aI14
aI17
aI18
aI13
aI18
aa(lp912
I5
aI5
aI2
aI9
aI5
aI5
aI9
aI9
aI12
aI10
aI9
aI11
aI12
aI11
aI10
aI17
aI18
aI16
aI14
aI15
aa(lp913
I2
aI3
aI5
aI7
aI8
aI9
aI8
aI11
aI9
aI9
aI9
aI11
aI15
aI15
aI12
aI14
aI15
aI13
aI11
aI13
aa(lp914
I5
aI6
aI5
aI8
aI5
aI7
aI10
aI11
aI9
aI12
aI14
aI12
aI12
aI11
aI11
aI13
aI10
aI14
aI14
aI13
aa(lp915
I6
aI3
aI8
aI5
aI8
aI8
aI10
aI13
aI13
aI11
aI11
aI15
aI13
aI17
aI17
aI15
aI17
aI17
aI14
aI17
aa(lp916
I1
aI2
aI4
aI4
aI12
aI8
aI9
aI8
aI15
aI11
aI10
aI13
aI11
aI10
aI13
aI18
aI15
aI13
aI18
aI14
aa(lp917
I3
aI4
aI4
aI9
aI7
aI8
aI11
aI7
aI7
aI8
aI11
aI10
aI10
aI16
aI13
aI14
aI14
aI15
aI13
aI13
aa(lp918
I4
aI2
aI5
aI10
aI11
aI13
aI13
aI15
aI13
aI11
aI15
aI12
aI14
aI14
aI17
aI14
aI16
aI14
aI17
aI14
aa(lp919
I6
aI9
aI7
aI12
aI17
aI15
aI13
aI17
aI18
aI18
aI16
aI17
aI16
aI14
aI15
aI18
aI16
aI15
aI18
aI17
aa(lp920
I3
aI5
aI3
aI9
aI7
aI12
aI10
aI12
aI10
aI15
aI16
aI18
aI15
aI15
aI17
aI13
aI14
aI16
aI15
aI17
aa(lp921
I4
aI6
aI4
aI4
aI5
aI7
aI7
aI9
aI7
aI8
aI10
aI8
aI12
aI12
aI14
aI16
aI18
aI16
aI16
aI13
aa(lp922
I4
aI8
aI8
aI12
aI11
aI13
aI15
aI10
aI12
aI10
aI11
aI13
aI11
aI15
aI15
aI14
aI16
aI14
aI18
aI17
aa(lp923
I3
aI9
aI11
aI8
aI8
aI10
aI13
aI10
aI15
aI14
aI12
aI15
aI14
aI13
aI18
aI15
aI15
aI18
aI16
aI15
aa(lp924
I3
aI2
aI6
aI5
aI6
aI7
aI7
aI14
aI11
aI13
aI11
aI13
aI11
aI13
aI16
aI17
aI16
aI15
aI13
aI16
aa(lp925
I6
aI6
aI2
aI3
aI5
aI8
aI7
aI10
aI15
aI15
aI14
aI15
aI14
aI17
aI18
aI16
aI15
aI14
aI14
aI17
aa(lp926
I4
aI5
aI7
aI4
aI12
aI8
aI7
aI9
aI11
aI8
aI10
aI10
aI13
aI13
aI11
aI13
aI14
aI14
aI13
aI13
aa(lp927
I4
aI3
aI8
aI9
aI5
aI8
aI7
aI7
aI12
aI15
aI17
aI15
aI17
aI18
aI16
aI16
aI14
aI15
aI17
aI15
aa(lp928
I5
aI3
aI5
aI4
aI10
aI12
aI8
aI10
aI12
aI11
aI15
aI15
aI14
aI15
aI14
aI14
aI16
aI15
aI13
aI14
aa(lp929
I4
aI4
aI4
aI12
aI12
aI10
aI14
aI12
aI14
aI13
aI15
aI11
aI14
aI12
aI10
aI10
aI12
aI10
aI15
aI15
aa(lp930
I2
aI6
aI9
aI7
aI10
aI9
aI9
aI9
aI12
aI7
aI10
aI14
aI12
aI13
aI18
aI15
aI13
aI16
aI14
aI16
aa(lp931
I2
aI4
aI1
aI4
aI10
aI12
aI7
aI9
aI11
aI15
aI15
aI12
aI14
aI11
aI12
aI15
aI14
aI15
aI11
aI14
aa(lp932
I3
aI6
aI4
aI8
aI12
aI8
aI12
aI8
aI12
aI15
aI14
aI14
aI14
aI18
aI14
aI15
aI18
aI18
aI17
aI17
aa(lp933
I5
aI8
aI4
aI4
aI10
aI8
aI12
aI10
aI10
aI10
aI8
aI11
aI12
aI8
aI12
aI12
aI11
aI10
aI11
aI15
aa(lp934
I5
aI8
aI10
aI10
aI7
aI11
aI9
aI8
aI9
aI13
aI12
aI11
aI12
aI15
aI11
aI13
aI15
aI15
aI13
aI16
aa(lp935
I2
aI5
aI5
aI11
aI8
aI8
aI12
aI13
aI13
aI13
aI13
aI14
aI11
aI15
aI10
aI12
aI15
aI14
aI12
aI13
aa(lp936
I6
aI8
aI4
aI11
aI10
aI13
aI13
aI12
aI18
aI16
aI15
aI14
aI15
aI18
aI18
aI15
aI17
aI17
aI15
aI18
aa(lp937
I2
aI8
aI9
aI10
aI12
aI8
aI7
aI10
aI10
aI15
aI14
aI18
aI14
aI16
aI13
aI15
aI17
aI13
aI14
aI18
aa(lp938
I6
aI6
aI8
aI12
aI12
aI7
aI7
aI11
aI9
aI7
aI9
aI7
aI12
aI15
aI10
aI15
aI14
aI10
aI10
aI13
aa(lp939
I5
aI8
aI4
aI7
aI9
aI8
aI14
aI13
aI16
aI14
aI13
aI13
aI17
aI14
aI15
aI15
aI18
aI15
aI18
aI13
aa(lp940
I3
aI3
aI6
aI2
aI2
aI4
aI5
aI4
aI10
aI15
aI14
aI17
aI18
aI17
aI13
aI15
aI14
aI14
aI18
aI15
aa(lp941
I2
aI4
aI2
aI6
aI3
aI7
aI12
aI8
aI12
aI10
aI10
aI10
aI14
aI13
aI14
aI13
aI15
aI17
aI15
aI17
aa(lp942
I4
aI4
aI6
aI5
aI9
aI8
aI7
aI10
aI15
aI12
aI10
aI13
aI17
aI16
aI15
aI16
aI16
aI13
aI16
aI17
aa(lp943
I3
aI7
aI6
aI11
aI10
aI8
aI7
aI8
aI7
aI8
aI11
aI11
aI12
aI9
aI14
aI13
aI15
aI17
aI17
aI17
aa(lp944
I1
aI3
aI9
aI5
aI6
aI4
aI10
aI7
aI13
aI15
aI14
aI10
aI11
aI14
aI13
aI13
aI18
aI15
aI13
aI13
aa(lp945
I6
aI1
aI7
aI11
aI11
aI8
aI7
aI8
aI12
aI7
aI12
aI14
aI11
aI15
aI10
aI14
aI11
aI14
aI10
aI15
aa(lp946
I1
aI1
aI1
aI4
aI7
aI4
aI5
aI8
aI9
aI5
aI7
aI9
aI7
aI7
aI15
aI13
aI16
aI14
aI18
aI13
aa(lp947
I4
aI5
aI12
aI12
aI13
aI14
aI14
aI11
aI14
aI17
aI16
aI17
aI13
aI15
aI13
aI16
aI13
aI18
aI17
aI14
aa(lp948
I1
aI4
aI8
aI7
aI12
aI11
aI14
aI12
aI18
aI14
aI17
aI15
aI13
aI14
aI18
aI13
aI13
aI18
aI15
aI14
aa(lp949
I6
aI7
aI4
aI8
aI8
aI5
aI5
aI4
aI12
aI9
aI10
aI14
aI14
aI10
aI13
aI13
aI10
aI13
aI16
aI15
aa(lp950
I4
aI2
aI4
aI8
aI9
aI11
aI8
aI11
aI11
aI12
aI10
aI13
aI13
aI15
aI14
aI13
aI12
aI13
aI14
aI16
aa(lp951
I2
aI7
aI4
aI8
aI13
aI10
aI11
aI14
aI10
aI11
aI10
aI11
aI13
aI15
aI11
aI15
aI15
aI15
aI13
aI16
aa(lp952
I2
aI3
aI8
aI7
aI8
aI10
aI8
aI10
aI10
aI7
aI7
aI7
aI9
aI11
aI11
aI14
aI13
aI15
aI15
aI14
aa(lp953
I3
aI1
aI3
aI8
aI10
aI13
aI15
aI14
aI15
aI11
aI10
aI12
aI15
aI18
aI17
aI15
aI17
aI14
aI13
aI13
aa(lp954
I4
aI1
aI2
aI8
aI9
aI4
aI6
aI5
aI6
aI8
aI10
aI14
aI14
aI12
aI15
aI12
aI16
aI18
aI14
aI14
aa(lp955
I4
aI5
aI6
aI1
aI2
aI5
aI6
aI6
aI7
aI10
aI10
aI11
aI15
aI15
aI15
aI11
aI15
aI14
aI14
aI13
aa(lp956
I2
aI6
aI7
aI9
aI15
aI14
aI13
aI13
aI17
aI13
aI13
aI13
aI15
aI13
aI16
aI15
aI13
aI16
aI13
aI16
aa(lp957
I6
aI4
aI7
aI12
aI10
aI18
aI15
aI18
aI18
aI13
aI17
aI14
aI15
aI16
aI13
aI16
aI16
aI14
aI16
aI18
aa(lp958
I6
aI3
aI4
aI5
aI9
aI11
aI14
aI15
aI15
aI15
aI13
aI15
aI14
aI13
aI18
aI18
aI17
aI16
aI15
aI16
aa(lp959
I1
aI4
aI10
aI7
aI11
aI7
aI11
aI13
aI10
aI11
aI12
aI18
aI14
aI17
aI14
aI16
aI14
aI16
aI13
aI17
aa(lp960
I2
aI1
aI1
aI2
aI8
aI5
aI9
aI12
aI12
aI10
aI10
aI13
aI18
aI14
aI17
aI18
aI17
aI15
aI14
aI18
aa(lp961
I1
aI3
aI4
aI2
aI5
aI6
aI5
aI12
aI13
aI17
aI16
aI18
aI17
aI13
aI18
aI16
aI16
aI15
aI16
aI16
aa(lp962
I4
aI1
aI6
aI7
aI8
aI9
aI8
aI11
aI11
aI7
aI10
aI10
aI7
aI12
aI11
aI15
aI10
aI15
aI13
aI15
aa(lp963
I2
aI7
aI12
aI12
aI8
aI7
aI11
aI9
aI10
aI9
aI9
aI11
aI17
aI18
aI17
aI14
aI18
aI16
aI15
aI13
aa(lp964
I5
aI5
aI5
aI8
aI11
aI13
aI14
aI15
aI18
aI15
aI18
aI18
aI13
aI15
aI16
aI13
aI14
aI13
aI15
aI17
aa(lp965
I3
aI6
aI7
aI7
aI9
aI9
aI14
aI10
aI10
aI12
aI15
aI11
aI12
aI14
aI10
aI16
aI15
aI17
aI17
aI17
aa(lp966
I4
aI4
aI3
aI8
aI5
aI8
aI7
aI4
aI6
aI7
aI11
aI10
aI8
aI13
aI12
aI15
aI11
aI17
aI13
aI13
aa(lp967
I3
aI4
aI6
aI9
aI10
aI12
aI12
aI10
aI15
aI10
aI17
aI13
aI13
aI15
aI17
aI13
aI14
aI13
aI18
aI13
aa(lp968
I3
aI3
aI4
aI6
aI7
aI8
aI9
aI9
aI11
aI8
aI11
aI10
aI12
aI12
aI8
aI7
aI9
aI10
aI8
aI7
aa(lp969
I5
aI9
aI4
aI4
aI5
aI11
aI11
aI12
aI11
aI11
aI12
aI11
aI14
aI13
aI18
aI15
aI17
aI14
aI14
aI18
aa(lp970
I1
aI3
aI6
aI6
aI8
aI11
aI12
aI8
aI11
aI11
aI14
aI13
aI16
aI14
aI16
aI15
aI13
aI16
aI16
aI14
aa(lp971
I4
aI5
aI9
aI10
aI11
aI11
aI10
aI15
aI11
aI16
aI16
aI17
aI15
aI17
aI18
aI16
aI14
aI18
aI16
aI16
aa(lp972
I6
aI8
aI7
aI9
aI10
aI10
aI15
aI16
aI15
aI18
aI17
aI13
aI18
aI16
aI13
aI17
aI13
aI15
aI15
aI14
aa(lp973
I3
aI6
aI4
aI7
aI9
aI8
aI9
aI8
aI9
aI12
aI12
aI17
aI18
aI14
aI18
aI15
aI17
aI14
aI13
aI14
aa(lp974
I6
aI5
aI5
aI6
aI6
aI8
aI8
aI6
aI7
aI10
aI7
aI10
aI13
aI13
aI12
aI11
aI11
aI12
aI14
aI14
aa(lp975
I3
aI9
aI5
aI9
aI15
aI13
aI13
aI10
aI11
aI12
aI15
aI14
aI15
aI12
aI18
aI17
aI16
aI17
aI18
aI17
aa(lp976
I3
aI3
aI6
aI4
aI7
aI8
aI12
aI7
aI7
aI11
aI12
aI8
aI13
aI13
aI18
aI14
aI15
aI17
aI13
aI14
aa(lp977
I4
aI3
aI4
aI5
aI4
aI9
aI11
aI10
aI8
aI8
aI7
aI12
aI9
aI10
aI15
aI16
aI17
aI17
aI16
aI13
aa(lp978
I4
aI3
aI3
aI6
aI8
aI15
aI12
aI15
aI17
aI15
aI13
aI14
aI13
aI17
aI14
aI16
aI13
aI18
aI14
aI17
aa(lp979
I1
aI6
aI8
aI7
aI12
aI13
aI15
aI18
aI18
aI17
aI17
aI16
aI13
aI13
aI16
aI17
aI16
aI17
aI14
aI16
aa(lp980
I1
aI3
aI6
aI9
aI8
aI9
aI9
aI6
aI8
aI8
aI12
aI11
aI9
aI11
aI11
aI18
aI17
aI17
aI18
aI14
aa(lp981
I5
aI9
aI9
aI4
aI5
aI8
aI4
aI10
aI7
aI14
aI10
aI15
aI14
aI15
aI16
aI18
aI17
aI18
aI14
aI16
aa(lp982
I3
aI7
aI7
aI12
aI12
aI9
aI10
aI14
aI15
aI18
aI16
aI13
aI13
aI16
aI18
aI18
aI13
aI18
aI17
aI13
aa(lp983
I1
aI5
aI7
aI9
aI10
aI10
aI15
aI10
aI10
aI14
aI14
aI15
aI15
aI13
aI17
aI16
aI15
aI18
aI13
aI14
aa(lp984
I4
aI6
aI3
aI9
aI5
aI8
aI9
aI8
aI10
aI7
aI11
aI8
aI10
aI10
aI13
aI15
aI12
aI18
aI16
aI17
aa(lp985
I1
aI4
aI8
aI4
aI11
aI11
aI9
aI12
aI9
aI15
aI12
aI14
aI11
aI12
aI13
aI11
aI13
aI14
aI13
aI14
aa(lp986
I5
aI2
aI2
aI4
aI4
aI8
aI9
aI7
aI7
aI4
aI5
aI10
aI7
aI13
aI13
aI12
aI14
aI13
aI17
aI16
aa(lp987
I2
aI8
aI5
aI7
aI8
aI9
aI12
aI17
aI16
aI16
aI17
aI15
aI13
aI13
aI14
aI16
aI17
aI18
aI18
aI14
aa(lp988
I6
aI3
aI5
aI7
aI7
aI5
aI4
aI6
aI8
aI8
aI11
aI9
aI10
aI15
aI11
aI14
aI14
aI10
aI15
aI15
aa(lp989
I3
aI6
aI4
aI12
aI11
aI16
aI18
aI14
aI18
aI16
aI17
aI15
aI18
aI18
aI17
aI15
aI18
aI16
aI18
aI16
aa(lp990
I6
aI1
aI6
aI6
aI9
aI11
aI14
aI16
aI15
aI18
aI16
aI17
aI14
aI13
aI15
aI18
aI16
aI17
aI15
aI16
aa(lp991
I3
aI5
aI5
aI8
aI11
aI11
aI13
aI15
aI12
aI10
aI13
aI13
aI13
aI18
aI15
aI13
aI16
aI18
aI16
aI15
aa(lp992
I6
aI5
aI9
aI10
aI10
aI12
aI8
aI11
aI15
aI14
aI14
aI12
aI10
aI11
aI17
aI14
aI18
aI13
aI17
aI13
aa(lp993
I6
aI8
aI11
aI8
aI11
aI8
aI9
aI12
aI12
aI12
aI15
aI13
aI11
aI17
aI17
aI18
aI15
aI17
aI17
aI14
aa(lp994
I1
aI4
aI4
aI4
aI7
aI6
aI6
aI8
aI11
aI14
aI13
aI10
aI15
aI13
aI11
aI13
aI11
aI11
aI15
aI14
aa(lp995
I4
aI6
aI6
aI4
aI10
aI10
aI14
aI15
aI14
aI17
aI17
aI17
aI13
aI17
aI15
aI14
aI18
aI16
aI17
aI14
aa(lp996
I1
aI9
aI9
aI7
aI10
aI12
aI10
aI8
aI12
aI11
aI10
aI12
aI12
aI15
aI15
aI14
aI15
aI10
aI10
aI10
aa(lp997
I2
aI6
aI7
aI7
aI6
aI11
aI11
aI11
aI10
aI11
aI13
aI15
aI13
aI13
aI14
aI13
aI13
aI15
aI13
aI18
aa(lp998
I6
aI1
aI9
aI8
aI15
aI15
aI14
aI11
aI11
aI12
aI14
aI14
aI10
aI10
aI12
aI10
aI12
aI17
aI15
aI13
aa(lp999
I2
aI4
aI6
aI7
aI6
aI8
aI12
aI12
aI10
aI10
aI7
aI9
aI10
aI11
aI7
aI10
aI12
aI14
aI10
aI11
aa(lp1000
I5
aI4
aI9
aI7
aI8
aI9
aI7
aI11
aI10
aI7
aI11
aI8
aI8
aI9
aI9
aI12
aI9
aI10
aI11
aI11
aa.