(lp0
(lp1
I3
aI1
aI8
aI7
aI12
aI13
aI15
aI13
aI15
aI14
aI10
aI13
aI11
aI14
aI13
aI17
aI17
aI17
aI16
aI17
aa(lp2
I3
aI5
aI4
aI9
aI7
aI7
aI15
aI13
aI11
aI13
aI14
aI16
aI17
aI13
aI14
aI18
aI16
aI17
aI17
aI13
aa(lp3
I4
aI5
aI9
aI8
aI7
aI10
aI13
aI11
aI12
aI15
aI13
aI14
aI11
aI15
aI14
aI15
aI17
aI16
aI15
aI18
aa(lp4
I1
aI9
aI5
aI10
aI12
aI10
aI12
aI7
aI8
aI10
aI12
aI11
aI15
aI13
aI12
aI15
aI11
aI13
aI15
aI12
aa(lp5
I4
aI1
aI5
aI4
aI4
aI9
aI8
aI10
aI7
aI9
aI11
aI14
aI12
aI14
aI14
aI15
aI15
aI12
aI14
aI14
aa(lp6
I5
aI8
aI8
aI9
aI14
aI12
aI12
aI13
aI15
aI14
aI14
aI18
aI17
aI18
aI13
aI16
aI17
aI18
aI13
aI15
aa(lp7
I5
aI9
aI5
aI5
aI9
aI12
aI13
aI12
aI10
aI10
aI18
aI14
aI16
aI16
aI18
aI17
aI15
aI15
aI13
aI14
aa(lp8
I2
aI3
aI8
aI6
aI7
aI12
aI10
aI12
aI14
aI10
aI12
aI13
aI10
aI15
aI14
aI14
aI13
aI14
aI15
aI13
aa(lp9
I4
aI2
aI5
aI2
aI6
aI9
aI8
aI11
aI14
aI10
aI11
aI15
aI14
aI14
aI15
aI15
aI15
aI16
aI14
aI13
aa(lp10
I4
aI3
aI9
aI5
aI4
aI7
aI4
aI9
aI15
aI11
aI15
aI14
aI15
aI18
aI14
aI16
aI17
aI16
aI17
aI17
aa(lp11
I5
aI8
aI7
aI9
aI4
aI8
aI8
aI12
aI11
aI7
aI11
aI8
aI13
aI18
aI15
aI16
aI13
aI15
aI17
aI14
aa(lp12
I3
aI6
aI7
aI11
aI12
aI17
aI17
aI14
aI13
aI15
aI15
aI17
aI16
aI16
aI14
aI14
aI14
aI15
aI18
aI16
aa(lp13
I5
aI5
aI8
aI8
aI14
aI13
aI15
aI12
aI13
aI13
aI10
aI14
aI17
aI13
aI13
aI13
aI14
aI14
aI16
aI18
aa(lp14
I1
aI6
aI4
aI4
aI6
aI9
aI7
aI7
aI7
aI14
aI11
aI14
aI14
aI14
aI18
aI18
aI14
aI14
aI14
aI16
aa(lp15
I3
aI5
aI3
aI2
aI5
aI8
aI5
aI7
aI7
aI7
aI8
aI8
aI10
aI10
aI12
aI13
aI15
aI10
aI10
aI14
aa(lp16
I2
aI4
aI6
aI4
aI9
aI11
aI12
aI8
aI9
aI15
aI13
aI13
aI14
aI12
aI13
aI13
aI14
aI15
aI16
aI18
aa(lp17
I4
aI2
aI8
aI5
aI6
aI9
aI9
aI8
aI4
aI5
aI11
aI12
aI9
aI12
aI10
aI9
aI11
aI11
aI10
aI14
aa(lp18
I6
aI6
aI2
aI1
aI8
aI8
aI15
aI14
aI10
aI15
aI14
aI15
aI16
aI18
aI13
aI13
aI15
aI17
aI16
aI15
aa(lp19
I1
aI8
aI10
aI8
aI13
aI10
aI14
aI13
aI12
aI10
aI14
aI15
aI11
aI13
aI14
aI10
aI11
aI13
aI13
aI10
aa(lp20
I2
aI8
aI8
aI8
aI11
aI8
aI14
aI14
aI11
aI12
aI13
aI13
aI10
aI13
aI11
aI11
aI13
aI13
aI11
aI15
aa(lp21
I3
aI2
aI9
aI8
aI11
aI16
aI15
aI17
aI18
aI13
aI16
aI15
aI18
aI16
aI13
aI14
aI14
aI18
aI13
aI18
aa(lp22
I4
aI5
aI4
aI6
aI5
aI7
aI7
aI9
aI13
aI11
aI15
aI10
aI11
aI10
aI10
aI12
aI11
aI15
aI18
aI14
aa(lp23
I6
aI9
aI7
aI10
aI10
aI7
aI12
aI11
aI13
aI16
aI15
aI18
aI17
aI13
aI18
aI17
aI14
aI14
aI13
aI16
aa(lp24
I1
aI6
aI1
aI4
aI6
aI5
aI9
aI7
aI13
aI13
aI12
aI16
aI18
aI15
aI16
aI14
aI15
aI18
aI13
aI15
aa(lp25
I6
aI4
aI3
aI1
aI1
aI2
aI6
aI1
aI3
aI4
aI6
aI6
aI8
aI11
aI13
aI14
aI16
aI16
aI13
aI16
aa(lp26
I3
aI1
aI2
aI5
aI9
aI12
aI8
aI7
aI10
aI17
aI17
aI16
aI17
aI15
aI18
aI16
aI13
aI15
aI18
aI18
aa(lp27
I5
aI2
aI9
aI9
aI8
aI11
aI11
aI11
aI10
aI16
aI18
aI14
aI17
aI14
aI14
aI17
aI14
aI15
aI13
aI13
aa(lp28
I3
aI6
aI5
aI4
aI7
aI8
aI14
aI10
aI13
aI18
aI18
aI13
aI14
aI16
aI14
aI15
aI15
aI15
aI17
aI13
aa(lp29
I2
aI3
aI9
aI9
aI8
aI7
aI14
aI10
aI15
aI15
aI12
aI11
aI13
aI15
aI13
aI13
aI15
aI13
aI14
aI14
aa(lp30
I1
aI4
aI4
aI10
aI9
aI10
aI7
aI12
aI12
aI14
aI11
aI14
aI15
aI14
aI16
aI18
aI13
aI13
aI18
aI16
aa(lp31
I5
aI5
aI4
aI9
aI6
aI8
aI11
aI7
aI11
aI12
aI10
aI7
aI15
aI10
aI13
aI11
aI14
aI10
aI14
aI11
aa(lp32
I3
aI4
aI7
aI9
aI13
aI11
aI17
aI16
aI15
aI17
aI15
aI13
aI13
aI18
aI14
aI16
aI15
aI17
aI18
aI16
aa(lp33
I4
aI5
aI3
aI6
aI12
aI7
aI8
aI9
aI10
aI12
aI11
aI10
aI15
aI13
aI17
aI15
aI13
aI15
aI14
aI13
aa(lp34
I5
aI5
aI12
aI10
aI8
aI12
aI14
aI10
aI15
aI12
aI12
aI14
aI14
aI13
aI15
aI13
aI14
aI18
aI16
aI14
aa(lp35
I4
aI9
aI5
aI7
aI9
aI12
aI8
aI8
aI9
aI8
aI7
aI10
aI9
aI15
aI11
aI18
aI15
aI15
aI16
aI17
aa(lp36
I5
aI5
aI3
aI9
aI5
aI12
aI12
aI11
aI13
aI14
aI13
aI18
aI14
aI15
aI18
aI15
aI18
aI16
aI13
aI13
aa(lp37
I1
aI3
aI9
aI12
aI8
aI8
aI12
aI11
aI9
aI8
aI11
aI14
aI15
aI18
aI14
aI17
aI18
aI18
aI16
aI17
aa(lp38
I4
aI2
aI4
aI6
aI4
aI1
aI6
aI3
aI6
aI9
aI5
aI11
aI12
aI9
aI9
aI12
aI12
aI14
aI11
aI11
aa(lp39
I4
aI4
aI2
aI6
aI6
aI6
aI7
aI15
aI13
aI14
aI13
aI18
aI13
aI16
aI16
aI16
aI17
aI14
aI18
aI15
aa(lp40
I2
aI4
aI9
aI10
aI8
aI8
aI11
aI15
aI16
aI17
aI16
aI15
aI18
aI16
aI17
aI16
aI13
aI15
aI13
aI17
aa(lp41
I4
aI7
aI6
aI7
aI4
aI6
aI8
aI7
aI9
aI15
aI11
aI14
aI10
aI13
aI13
aI18
aI14
aI14
aI18
aI14
aa(lp42
I5
aI3
aI1
aI5
aI1
aI6
aI8
aI11
aI8
aI11
aI9
aI7
aI7
aI11
aI9
aI7
aI8
aI11
aI10
aI10
aa(lp43
I4
aI7
aI9
aI7
aI4
aI7
aI9
aI7
aI4
aI6
aI12
aI10
aI9
aI7
aI10
aI8
aI8
aI8
aI13
aI14
aa(lp44
I1
aI8
aI12
aI9
aI15
aI13
aI10
aI13
aI14
aI17
aI14
aI14
aI14
aI18
aI14
aI18
aI15
aI14
aI13
aI13
aa(lp45
I3
aI2
aI6
aI3
aI6
aI8
aI9
aI8
aI11
aI8
aI10
aI11
aI10
aI12
aI12
aI11
aI17
aI14
aI17
aI16
aa(lp46
I4
aI8
aI8
aI14
aI13
aI13
aI15
aI10
aI14
aI15
aI18
aI16
aI18
aI18
aI18
aI14
aI14
aI16
aI18
aI18
aa(lp47
I3
aI8
aI4
aI6
aI8
aI14
aI10
aI15
aI13
aI13
aI14
aI10
aI14
aI18
aI15
aI17
aI14
aI13
aI13
aI18
aa(lp48
I4
aI6
aI8
aI10
aI11
aI9
aI7
aI10
aI9
aI10
aI7
aI10
aI15
aI13
aI11
aI11
aI12
aI10
aI12
aI15
aa(lp49
I1
aI4
aI2
aI7
aI5
aI12
aI10
aI11
aI11
aI15
aI13
aI17
aI17
aI18
aI16
aI13
aI18
aI15
aI15
aI18
aa(lp50
I2
aI5
aI8
aI11
aI15
aI13
aI13
aI18
aI15
aI14
aI17
aI18
aI15
aI18
aI14
aI14
aI16
aI17
aI15
aI16
aa(lp51
I2
aI8
aI5
aI7
aI8
aI5
aI4
aI5
aI4
aI9
aI12
aI14
aI10
aI11
aI11
aI14
aI13
aI18
aI13
aI16
aa(lp52
I2
aI4
aI9
aI12
aI12
aI11
aI12
aI11
aI14
aI12
aI14
aI15
aI13
aI13
aI14
aI17
aI13
aI15
aI18
aI18
aa(lp53
I3
aI8
aI4
aI7
aI5
aI12
aI8
aI14
aI11
aI11
aI10
aI13
aI14
aI14
aI15
aI14
aI14
aI15
aI16
aI15
aa(lp54
I2
aI6
aI5
aI4
aI7
aI7
aI11
aI10
aI14
aI11
aI16
aI18
aI18
aI17
aI15
aI15
aI17
aI16
aI17
aI17
aa(lp55
I3
aI9
aI6
aI12
aI8
aI10
aI14
aI12
aI15
aI15
aI13
aI13
aI16
aI16
aI17
aI16
aI13
aI14
aI14
aI18
aa(lp56
I2
aI3
aI9
aI7
aI5
aI9
aI11
aI14
aI11
aI10
aI15
aI15
aI15
aI12
aI12
aI12
aI13
aI12
aI10
aI12
aa(lp57
I4
aI7
aI12
aI11
aI9
aI11
aI10
aI11
aI13
aI13
aI17
aI14
aI18
aI17
aI17
aI17
aI13
aI18
aI15
aI18
aa(lp58
I3
aI1
aI5
aI7
aI8
aI8
aI7
aI11
aI10
aI16
aI16
aI17
aI15
aI16
aI15
aI17
aI18
aI14
aI15
aI13
aa(lp59
I6
aI2
aI6
aI8
aI9
aI8
aI10
aI9
aI7
aI11
aI8
aI14
aI12
aI14
aI18
aI14
aI15
aI13
aI17
aI14
aa(lp60
I2
aI3
aI4
aI2
aI5
aI7
aI9
aI9
aI9
aI11
aI11
aI10
aI7
aI9
aI8
aI9
aI9
aI8
aI11
aI11
aa(lp61
I6
aI5
aI6
aI9
aI6
aI9
aI5
aI10
aI12
aI12
aI12
aI12
aI13
aI12
aI12
aI10
aI13
aI18
aI18
aI13
aa(lp62
I1
aI9
aI4
aI9
aI14
aI14
aI15
aI10
aI11
aI11
aI14
aI13
aI11
aI13
aI13
aI14
aI13
aI14
aI16
aI18
aa(lp63
I5
aI8
aI11
aI11
aI10
aI9
aI9
aI9
aI10
aI10
aI8
aI8
aI8
aI15
aI11
aI13
aI10
aI11
aI10
aI11
aa(lp64
I4
aI6
aI5
aI5
aI7
aI12
aI11
aI7
aI14
aI10
aI14
aI14
aI13
aI16
aI13
aI15
aI18
aI14
aI16
aI17
aa(lp65
I2
aI7
aI8
aI10
aI7
aI11
aI12
aI16
aI15
aI15
aI17
aI16
aI17
aI14
aI15
aI17
aI18
aI15
aI16
aI13
aa(lp66
I2
aI4
aI7
aI10
aI10
aI8
aI11
aI11
aI12
aI12
aI10
aI12
aI14
aI15
aI12
aI15
aI14
aI14
aI16
aI13
aa(lp67
I3
aI2
aI4
aI8
aI13
aI10
aI16
aI14
aI14
aI16
aI14
aI16
aI15
aI16
aI14
aI14
aI13
aI16
aI16
aI15
aa(lp68
I4
aI7
aI5
aI11
aI10
aI12
aI10
aI10
aI15
aI14
aI10
aI11
aI11
aI15
aI18
aI14
aI17
aI16
aI18
aI15
aa(lp69
I2
aI7
aI6
aI12
aI11
aI11
aI14
aI16
aI13
aI16
aI15
aI15
aI13
aI16
aI18
aI15
aI16
aI16
aI16
aI18
aa(lp70
I6
aI6
aI11
aI9
aI10
aI7
aI7
aI8
aI7
aI8
aI10
aI10
aI10
aI10
aI15
aI10
aI15
aI18
aI13
aI15
aa(lp71
I4
aI7
aI6
aI7
aI14
aI12
aI17
aI14
aI13
aI16
aI13
aI18
aI14
aI18
aI13
aI17
aI17
aI17
aI16
aI17
aa(lp72
I4
aI6
aI4
aI10
aI7
aI7
aI10
aI12
aI12
aI11
aI13
aI14
aI12
aI14
aI14
aI17
aI15
aI13
aI14
aI15
aa(lp73
I2
aI5
aI6
aI8
aI11
aI12
aI11
aI11
aI12
aI13
aI13
aI11
aI13
aI16
aI18
aI13
aI14
aI16
aI18
aI14
aa(lp74
I5
aI2
aI1
aI5
aI8
aI7
aI9
aI9
aI8
aI7
aI14
aI17
aI15
aI16
aI15
aI16
aI17
aI13
aI18
aI13
aa(lp75
I4
aI5
aI4
aI7
aI9
aI7
aI10
aI10
aI12
aI14
aI11
aI13
aI16
aI17
aI17
aI13
aI17
aI18
aI15
aI13
aa(lp76
I4
aI6
aI9
aI4
aI4
aI4
aI9
aI7
aI8
aI10
aI8
aI12
aI9
aI11
aI15
aI12
aI13
aI15
aI14
aI18
aa(lp77
I5
aI9
aI7
aI7
aI10
aI12
aI9
aI11
aI18
aI15
aI17
aI16
aI13
aI16
aI18
aI13
aI18
aI13
aI17
aI16
aa(lp78
I6
aI7
aI4
aI7
aI8
aI7
aI8
aI7
aI12
aI11
aI10
aI14
aI13
aI15
aI15
aI12
aI13
aI15
aI13
aI14
aa(lp79
I1
aI3
aI1
aI5
aI7
aI4
aI5
aI9
aI9
aI7
aI11
aI15
aI15
aI12
aI11
aI15
aI15
aI10
aI12
aI14
aa(lp80
I6
aI6
aI8
aI11
aI10
aI13
aI14
aI14
aI15
aI13
aI13
aI16
aI14
aI13
aI14
aI13
aI16
aI13
aI18
aI18
aa(lp81
I2
aI3
aI4
aI4
aI6
aI6
aI7
aI11
aI11
aI12
aI8
aI8
aI9
aI9
aI11
aI10
aI18
aI18
aI15
aI13
aa(lp82
I2
aI5
aI8
aI12
aI7
aI8
aI11
aI12
aI10
aI12
aI14
aI14
aI14
aI17
aI13
aI18
aI15
aI17
aI17
aI13
aa(lp83
I1
aI5
aI6
aI10
aI9
aI12
aI8
aI7
aI9
aI11
aI11
aI10
aI13
aI14
aI10
aI16
aI15
aI14
aI16
aI14
aa(lp84
I3
aI1
aI3
aI6
aI5
aI7
aI8
aI7
aI9
aI12
aI10
aI18
aI17
aI15
aI16
aI15
aI14
aI13
aI14
aI14
aa(lp85
I5
aI4
aI4
aI9
aI8
aI7
aI9
aI10
aI12
aI13
aI14
aI15
aI13
aI15
aI14
aI14
aI16
aI16
aI14
aI16
aa(lp86
I1
aI4
aI4
aI12
aI7
aI15
aI14
aI15
aI17
aI14
aI16
aI17
aI13
aI18
aI15
aI13
aI16
aI15
aI13
aI16
aa(lp87
I4
aI4
aI4
aI6
aI5
aI9
aI4
aI10
aI7
aI11
aI13
aI12
aI13
aI11
aI10
aI13
aI15
aI10
aI14
aI15
aa(lp88
I4
aI5
aI5
aI9
aI11
aI11
aI11
aI12
aI7
aI9
aI15
aI13
aI17
aI15
aI13
aI14
aI18
aI16
aI16
aI17
aa(lp89
I4
aI3
aI3
aI9
aI5
aI7
aI5
aI4
aI10
aI7
aI13
aI11
aI11
aI13
aI17
aI15
aI13
aI16
aI17
aI16
aa(lp90
I6
aI1
aI7
aI10
aI10
aI8
aI15
aI12
aI10
aI13
aI14
aI11
aI14
aI14
aI12
aI18
aI13
aI17
aI14
aI16
aa(lp91
I6
aI9
aI7
aI8
aI5
aI8
aI12
aI8
aI8
aI10
aI14
aI11
aI11
aI11
aI13
aI15
aI17
aI13
aI17
aI16
aa(lp92
I4
aI4
aI7
aI9
aI9
aI12
aI12
aI7
aI13
aI16
aI14
aI16
aI18
aI13
aI17
aI15
aI18
aI13
aI15
aI17
aa(lp93
I1
aI5
aI11
aI11
aI10
aI15
aI10
aI15
aI13
aI16
aI18
aI17
aI13
aI13
aI16
aI18
aI13
aI14
aI17
aI16
aa(lp94
I2
aI4
aI6
aI8
aI11
aI11
aI15
aI17
aI18
aI17
aI13
aI16
aI17
aI14
aI16
aI16
aI17
aI13
aI14
aI13
aa(lp95
I6
aI9
aI7
aI7
aI9
aI11
aI15
aI12
aI13
aI10
aI10
aI11
aI10
aI16
aI13
aI16
aI14
aI13
aI18
aI16
aa(lp96
I4
aI9
aI10
aI12
aI12
aI11
aI12
aI10
aI10
aI12
aI15
aI15
aI17
aI16
aI13
aI18
aI13
aI15
aI17
aI17
aa(lp97
I3
aI1
aI4
aI8
aI9
aI9
aI9
aI7
aI11
aI17
aI15
aI17
aI14
aI13
aI13
aI18
aI18
aI13
aI13
aI17
aa(lp98
I4
aI5
aI4
aI6
aI12
aI10
aI9
aI14
aI12
aI11
aI15
aI10
aI18
aI18
aI13
aI18
aI16
aI15
aI18
aI14
aa(lp99
I4
aI5
aI10
aI9
aI13
aI13
aI18
aI15
aI16
aI15
aI13
aI18
aI16
aI14
aI17
aI13
aI13
aI14
aI13
aI16
aa(lp100
I1
aI9
aI8
aI5
aI10
aI12
aI10
aI9
aI12
aI8
aI11
aI7
aI12
aI10
aI14
aI10
aI14
aI14
aI10
aI15
aa(lp101
I2
aI4
aI11
aI8
aI9
aI10
aI15
aI16
aI15
aI14
aI14
aI13
aI13
aI14
aI18
aI17
aI15
aI13
aI16
aI13
aa(lp102
I2
aI8
aI6
aI4
aI5
aI5
aI7
aI7
aI11
aI13
aI14
aI18
aI17
aI16
aI13
aI16
aI15
aI18
aI17
aI16
aa(lp103
I4
aI4
aI5
aI6
aI5
aI4
aI7
aI8
aI6
aI12
aI15
aI14
aI10
aI12
aI12
aI13
aI10
aI14
aI14
aI13
aa(lp104
I2
aI6
aI9
aI6
aI12
aI13
aI14
aI12
aI13
aI16
aI15
aI17
aI18
aI18
aI16
aI15
aI16
aI18
aI15
aI15
aa(lp105
I6
aI8
aI6
aI10
aI11
aI13
aI13
aI14
aI15
aI15
aI15
aI18
aI14
aI17
aI13
aI16
aI16
aI16
aI14
aI18
aa(lp106
I5
aI4
aI2
aI6
aI5
aI7
aI8
aI10
aI11
aI15
aI10
aI13
aI12
aI13
aI14
aI13
aI16
aI13
aI18
aI16
aa(lp107
I2
aI5
aI11
aI12
aI13
aI12
aI13
aI10
aI12
aI11
aI13
aI15
aI13
aI16
aI15
aI18
aI13
aI13
aI14
aI18
aa(lp108
I3
aI9
aI10
aI13
aI11
aI14
aI15
aI15
aI14
aI14
aI12
aI12
aI11
aI14
aI13
aI13
aI13
aI17
aI16
aI14
aa(lp109
I1
aI5
aI4
aI6
aI5
aI7
aI13
aI17
aI17
aI16
aI18
aI13
aI17
aI17
aI13
aI17
aI15
aI13
aI16
aI13
aa(lp110
I4
aI4
aI8
aI8
aI6
aI8
aI8
aI9
aI6
aI9
aI5
aI12
aI12
aI15
aI10
aI14
aI13
aI18
aI14
aI14
aa(lp111
I4
aI5
aI6
aI10
aI8
aI8
aI11
aI12
aI12
aI14
aI11
aI12
aI12
aI12
aI14
aI12
aI13
aI13
aI17
aI15
aa(lp112
I4
aI4
aI8
aI9
aI7
aI10
aI12
aI11
aI11
aI12
aI9
aI12
aI12
aI9
aI14
aI13
aI13
aI13
aI17
aI17
aa(lp113
I4
aI8
aI7
aI9
aI10
aI12
aI10
aI12
aI13
aI13
aI15
aI16
aI13
aI14
aI14
aI17
aI16
aI18
aI17
aI14
aa(lp114
I2
aI6
aI5
aI4
aI4
aI7
aI10
aI12
aI8
aI11
aI14
aI11
aI10
aI15
aI13
aI15
aI17
aI15
aI18
aI13
aa(lp115
I2
aI9
aI7
aI7
aI10
aI8
aI10
aI11
aI11
aI11
aI13
aI13
aI14
aI15
aI13
aI15
aI15
aI16
aI15
aI15
aa(lp116
I4
aI2
aI5
aI5
aI9
aI7
aI11
aI7
aI13
aI15
aI10
aI13
aI15
aI16
aI16
aI16
aI17
aI14
aI14
aI14
aa(lp117
I3
aI7
aI9
aI12
aI11
aI10
aI12
aI11
aI15
aI15
aI13
aI11
aI11
aI12
aI10
aI10
aI12
aI14
aI16
aI13
aa(lp118
I1
aI7
aI5
aI5
aI5
aI5
aI6
aI10
aI12
aI13
aI11
aI14
aI15
aI12
aI15
aI13
aI15
aI11
aI15
aI10
aa(lp119
I4
aI9
aI10
aI9
aI9
aI10
aI9
aI11
aI10
aI9
aI7
aI10
aI10
aI12
aI13
aI10
aI14
aI13
aI12
aI12
aa(lp120
I6
aI9
aI4
aI9
aI11
aI11
aI14
aI10
aI10
aI12
aI16
aI16
aI14
aI18
aI15
aI13
aI13
aI14
aI16
aI17
aa(lp121
I1
aI7
aI11
aI9
aI10
aI8
aI9
aI11
aI12
aI15
aI15
aI18
aI15
aI14
aI16
aI17
aI16
aI16
aI16
aI14
aa(lp122
I4
aI5
aI6
aI4
aI12
aI11
aI11
aI9
aI11
aI12
aI10
aI9
aI11
aI10
aI12
aI10
aI10
aI15
aI13
aI18
aa(lp123
I6
aI2
aI6
aI7
aI7
aI11
aI14
aI12
aI10
aI14
aI14
aI16
aI15
aI15
aI13
aI14
aI18
aI18
aI14
aI16
aa(lp124
I4
aI2
aI4
aI8
aI7
aI12
aI11
aI9
aI12
aI12
aI7
aI11
aI15
aI10
aI11
aI15
aI14
aI15
aI13
aI18
aa(lp125
I4
aI6
aI5
aI5
aI12
aI12
aI10
aI11
aI12
aI13
aI18
aI14
aI13
aI14
aI16
aI14
aI13
aI17
aI16
aI15
aa(lp126
I1
aI4
aI12
aI9
aI8
aI13
aI13
aI11
aI14
aI13
aI14
aI10
aI16
aI15
aI14
aI17
aI14
aI17
aI15
aI16
aa(lp127
I3
aI9
aI9
aI6
aI7
aI6
aI5
aI5
aI7
aI7
aI5
aI9
aI8
aI6
aI9
aI7
aI8
aI11
aI12
aI11
aa(lp128
I3
aI4
aI7
aI6
aI7
aI8
aI10
aI10
aI12
aI8
aI7
aI14
aI12
aI10
aI11
aI13
aI16
aI18
aI16
aI13
aa(lp129
I3
aI7
aI10
aI12
aI13
aI17
aI15
aI17
aI15
aI15
aI13
aI16
aI14
aI16
aI18
aI15
aI15
aI13
aI17
aI14
aa(lp130
I4
aI3
aI1
aI5
aI8
aI7
aI9
aI8
aI11
aI9
aI7
aI12
aI11
aI10
aI15
aI15
aI14
aI14
aI16
aI15
aa(lp131
I4
aI6
aI9
aI7
aI10
aI7
aI12
aI7
aI9
aI11
aI15
aI15
aI18
aI17
aI14
aI14
aI16
aI16
aI18
aI16
aa(lp132
I3
aI2
aI6
aI10
aI12
aI9
aI15
aI12
aI14
aI11
aI17
aI15
aI13
aI14
aI13
aI14
aI18
aI13
aI18
aI18
aa(lp133
I1
aI7
aI12
aI11
aI12
aI8
aI7
aI14
aI12
aI11
aI12
aI11
aI12
aI13
aI15
aI15
aI17
aI15
aI17
aI18
aa(lp134
I6
aI4
aI6
aI1
aI5
aI6
aI6
aI6
aI7
aI10
aI14
aI13
aI12
aI12
aI15
aI10
aI13
aI10
aI17
aI18
aa(lp135
I6
aI5
aI8
aI4
aI5
aI7
aI10
aI7
aI11
aI10
aI15
aI14
aI11
aI13
aI14
aI15
aI14
aI13
aI18
aI14
aa(lp136
I6
aI6
aI2
aI9
aI7
aI12
aI12
aI17
aI16
aI16
aI14
aI18
aI16
aI15
aI14
aI16
aI16
aI16
aI16
aI16
aa(lp137
I4
aI9
aI10
aI14
aI14
aI16
aI16
aI13
aI14
aI18
aI15
aI14
aI16
aI18
aI16
aI15
aI17
aI18
aI18
aI13
aa(lp138
I1
aI4
aI9
aI7
aI7
aI9
aI12
aI11
aI12
aI10
aI15
aI13
aI13
aI10
aI13
aI10
aI17
aI18
aI16
aI15
aa(lp139
I4
aI2
aI5
aI6
aI8
aI7
aI7
aI7
aI11
aI12
aI13
aI14
aI14
aI13
aI14
aI14
aI17
aI14
aI13
aI17
aa(lp140
I2
aI7
aI7
aI8
aI8
aI8
aI10
aI10
aI12
aI10
aI14
aI12
aI12
aI11
aI18
aI17
aI14
aI13
aI13
aI17
aa(lp141
I5
aI6
aI9
aI4
aI9
aI5
aI9
aI11
aI11
aI12
aI15
aI15
aI13
aI15
aI13
aI14
aI16
aI13
aI14
aI17
aa(lp142
I6
aI9
aI7
aI11
aI16
aI16
aI15
aI18
aI17
aI14
aI18
aI15
aI18
aI17
aI17
aI17
aI13
aI15
aI14
aI17
aa(lp143
I6
aI4
aI3
aI9
aI12
aI9
aI11
aI9
aI9
aI8
aI9
aI7
aI15
aI10
aI10
aI10
aI13
aI10
aI15
aI13
aa(lp144
I3
aI6
aI6
aI8
aI9
aI12
aI12
aI13
aI13
aI12
aI13
aI13
aI18
aI17
aI16
aI16
aI16
aI15
aI16
aI16
aa(lp145
I6
aI8
aI11
aI8
aI9
aI10
aI11
aI11
aI11
aI14
aI12
aI13
aI15
aI18
aI16
aI14
aI17
aI16
aI15
aI13
aa(lp146
I1
aI7
aI10
aI7
aI7
aI12
aI12
aI7
aI12
aI12
aI10
aI11
aI14
aI14
aI14
aI18
aI17
aI13
aI15
aI13
aa(lp147
I6
aI4
aI4
aI6
aI4
aI7
aI14
aI12
aI14
aI12
aI11
aI11
aI12
aI12
aI11
aI18
aI15
aI14
aI13
aI13
aa(lp148
I6
aI5
aI4
aI8
aI9
aI8
aI10
aI11
aI10
aI11
aI10
aI12
aI13
aI14
aI17
aI16
aI16
aI16
aI16
aI13
aa(lp149
I6
aI4
aI1
aI5
aI7
aI9
aI8
aI10
aI15
aI10
aI16
aI17
aI18
aI18
aI14
aI15
aI14
aI16
aI16
aI18
aa(lp150
I5
aI4
aI7
aI7
aI6
aI4
aI6
aI7
aI9
aI9
aI8
aI9
aI11
aI14
aI13
aI13
aI15
aI18
aI16
aI15
aa(lp151
I3
aI6
aI6
aI2
aI6
aI12
aI9
aI10
aI12
aI18
aI13
aI16
aI14
aI14
aI14
aI18
aI18
aI16
aI16
aI14
aa(lp152
I6
aI2
aI7
aI7
aI10
aI14
aI15
aI14
aI13
aI14
aI14
aI14
aI18
aI15
aI17
aI15
aI16
aI17
aI17
aI18
aa(lp153
I6
aI5
aI9
aI7
aI7
aI11
aI7
aI10
aI11
aI9
aI11
aI11
aI11
aI9
aI8
aI11
aI7
aI12
aI10
aI10
aa(lp154
I6
aI2
aI9
aI7
aI6
aI5
aI9
aI8
aI12
aI10
aI14
aI18
aI14
aI18
aI16
aI16
aI16
aI18
aI14
aI18
aa(lp155
I3
aI6
aI1
aI1
aI4
aI9
aI7
aI10
aI15
aI15
aI16
aI17
aI13
aI15
aI15
aI17
aI18
aI13
aI18
aI17
aa(lp156
I6
aI3
aI6
aI6
aI10
aI7
aI7
aI14
aI14
aI15
aI13
aI10
aI15
aI14
aI17
aI18
aI13
aI16
aI18
aI16
aa(lp157
I4
aI4
aI2
aI6
aI4
aI9
aI9
aI9
aI4
aI7
aI10
aI7
aI7
aI15
aI14
aI12
aI10
aI12
aI10
aI13
aa(lp158
I4
aI8
aI6
aI8
aI11
aI18
aI18
aI17
aI13
aI14
aI14
aI16
aI16
aI17
aI17
aI17
aI13
aI15
aI13
aI13
aa(lp159
I4
aI6
aI1
aI3
aI6
aI8
aI10
aI9
aI11
aI12
aI13
aI16
aI16
aI15
aI16
aI16
aI15
aI16
aI14
aI16
aa(lp160
I4
aI4
aI1
aI4
aI9
aI12
aI11
aI10
aI11
aI10
aI11
aI11
aI11
aI12
aI10
aI12
aI14
aI18
aI14
aI18
aa(lp161
I5
aI6
aI6
aI12
aI12
aI8
aI8
aI9
aI11
aI15
aI14
aI18
aI15
aI13
aI15
aI16
aI17
aI16
aI14
aI17
aa(lp162
I2
aI2
aI5
aI7
aI9
aI7
aI7
aI7
aI11
aI10
aI10
aI14
aI11
aI14
aI15
aI15
aI12
aI11
aI11
aI10
aa(lp163
I6
aI6
aI7
aI6
aI10
aI12
aI8
aI8
aI10
aI10
aI13
aI12
aI10
aI10
aI13
aI13
aI12
aI12
aI14
aI16
aa(lp164
I6
aI8
aI9
aI11
aI7
aI13
aI12
aI13
aI18
aI15
aI14
aI18
aI15
aI13
aI13
aI17
aI17
aI18
aI14
aI15
aa(lp165
I3
aI4
aI5
aI9
aI8
aI12
aI12
aI10
aI13
aI13
aI16
aI15
aI18
aI15
aI13
aI14
aI13
aI18
aI15
aI13
aa(lp166
I5
aI3
aI6
aI7
aI6
aI6
aI9
aI11
aI10
aI9
aI9
aI14
aI15
aI15
aI15
aI10
aI10
aI11
aI12
aI18
aa(lp167
I1
aI4
aI7
aI7
aI7
aI7
aI11
aI14
aI13
aI15
aI17
aI13
aI14
aI18
aI14
aI15
aI17
aI17
aI18
aI18
aa(lp168
I3
aI7
aI8
aI8
aI4
aI6
aI12
aI10
aI10
aI10
aI8
aI7
aI14
aI12
aI13
aI13
aI16
aI18
aI18
aI18
aa(lp169
I5
aI8
aI9
aI8
aI4
aI12
aI9
aI10
aI9
aI9
aI8
aI8
aI12
aI10
aI7
aI15
aI11
aI12
aI14
aI14
aa(lp170
I3
aI7
aI6
aI9
aI8
aI7
aI12
aI10
aI9
aI12
aI10
aI10
aI8
aI13
aI14
aI17
aI16
aI18
aI17
aI18
aa(lp171
I1
aI4
aI10
aI11
aI8
aI8
aI15
aI14
aI14
aI17
aI13
aI14
aI15
aI16
aI16
aI17
aI18
aI13
aI17
aI15
aa(lp172
I3
aI6
aI1
aI8
aI7
aI9
aI12
aI14
aI10
aI14
aI13
aI14
aI13
aI14
aI15
aI17
aI16
aI14
aI15
aI17
aa(lp173
I5
aI1
aI6
aI5
aI2
aI8
aI9
aI10
aI11
aI12
aI17
aI13
aI17
aI18
aI13
aI16
aI17
aI17
aI14
aI14
aa(lp174
I2
aI6
aI9
aI9
aI5
aI11
aI12
aI18
aI15
aI18
aI17
aI17
aI13
aI16
aI17
aI16
aI13
aI14
aI17
aI14
aa(lp175
I4
aI6
aI2
aI7
aI9
aI9
aI6
aI5
aI8
aI8
aI7
aI12
aI9
aI7
aI9
aI11
aI13
aI13
aI14
aI18
aa(lp176
I1
aI3
aI3
aI5
aI8
aI13
aI12
aI11
aI14
aI14
aI15
aI10
aI13
aI15
aI10
aI10
aI15
aI16
aI16
aI17
aa(lp177
I3
aI1
aI6
aI7
aI8
aI11
aI8
aI12
aI9
aI10
aI14
aI11
aI14
aI12
aI11
aI15
aI12
aI15
aI13
aI13
aa(lp178
I5
aI7
aI4
aI10
aI11
aI9
aI10
aI10
aI14
aI14
aI11
aI14
aI12
aI12
aI11
aI15
aI17
aI16
aI17
aI16
aa(lp179
I1
aI1
aI4
aI2
aI6
aI6
aI7
aI4
aI12
aI12
aI10
aI12
aI15
aI15
aI13
aI15
aI11
aI16
aI14
aI17
aa(lp180
I1
aI3
aI1
aI4
aI4
aI8
aI8
aI8
aI8
aI8
aI11
aI11
aI12
aI13
aI15
aI14
aI11
aI12
aI11
aI11
aa(lp181
I5
aI2
aI6
aI6
aI9
aI8
aI9
aI9
aI11
aI12
aI8
aI12
aI8
aI12
aI8
aI14
aI15
aI10
aI15
aI12
aa(lp182
I2
aI4
aI8
aI7
aI7
aI6
aI9
aI7
aI13
aI13
aI11
aI10
aI11
aI12
aI10
aI15
aI15
aI17
aI16
aI14
aa(lp183
I5
aI7
aI9
aI7
aI4
aI8
aI7
aI10
aI10
aI9
aI7
aI14
aI12
aI10
aI12
aI16
aI18
aI16
aI17
aI14
aa(lp184
I1
aI5
aI8
aI11
aI11
aI18
aI14
aI18
aI13
aI17
aI13
aI16
aI14
aI15
aI16
aI15
aI18
aI15
aI17
aI16
aa(lp185
I6
aI6
aI5
aI4
aI4
aI9
aI10
aI9
aI11
aI8
aI11
aI12
aI11
aI8
aI14
aI14
aI14
aI11
aI11
aI10
aa(lp186
I2
aI3
aI9
aI9
aI10
aI12
aI8
aI9
aI11
aI10
aI13
aI14
aI16
aI17
aI16
aI15
aI17
aI15
aI13
aI15
aa(lp187
I6
aI5
aI8
aI9
aI11
aI7
aI12
aI15
aI10
aI13
aI10
aI12
aI15
aI17
aI15
aI18
aI15
aI17
aI16
aI14
aa(lp188
I6
aI7
aI7
aI12
aI12
aI9
aI15
aI12
aI14
aI12
aI14
aI15
aI13
aI16
aI18
aI15
aI17
aI13
aI17
aI13
aa(lp189
I5
aI3
aI5
aI4
aI4
aI8
aI14
aI12
aI11
aI12
aI13
aI15
aI12
aI15
aI15
aI13
aI17
aI14
aI13
aI14
aa(lp190
I6
aI3
aI5
aI8
aI12
aI12
aI10
aI11
aI11
aI10
aI11
aI8
aI15
aI12
aI11
aI11
aI15
aI14
aI15
aI17
aa(lp191
I1
aI8
aI10
aI10
aI11
aI10
aI11
aI11
aI12
aI11
aI15
aI15
aI14
aI14
aI11
aI15
aI15
aI17
aI15
aI18
aa(lp192
I1
aI6
aI3
aI4
aI2
aI4
aI9
aI12
aI9
aI10
aI12
aI9
aI7
aI12
aI12
aI12
aI18
aI17
aI18
aI18
aa(lp193
I1
aI4
aI4
aI8
aI9
aI9
aI9
aI11
aI11
aI9
aI7
aI12
aI8
aI10
aI10
aI11
aI10
aI14
aI13
aI13
aa(lp194
I4
aI6
aI7
aI11
aI11
aI10
aI8
aI10
aI11
aI14
aI14
aI14
aI13
aI14
aI15
aI14
aI18
aI17
aI16
aI15
aa(lp195
I1
aI4
aI9
aI8
aI12
aI13
aI14
aI13
aI15
aI16
aI15
aI16
aI17
aI13
aI13
aI13
aI17
aI17
aI14
aI16
aa(lp196
I4
aI8
aI6
aI7
aI8
aI11
aI11
aI15
aI18
aI18
aI18
aI16
aI13
aI13
aI15
aI13
aI16
aI14
aI14
aI16
aa(lp197
I1
aI3
aI4
aI9
aI6
aI6
aI12
aI9
aI8
aI7
aI12
aI11
aI14
aI10
aI11
aI12
aI17
aI17
aI13
aI14
aa(lp198
I6
aI4
aI4
aI7
aI11
aI8
aI15
aI14
aI13
aI17
aI18
aI17
aI13
aI15
aI16
aI18
aI18
aI13
aI13
aI18
aa(lp199
I2
aI2
aI5
aI6
aI6
aI6
aI8
aI7
aI6
aI6
aI8
aI11
aI10
aI12
aI11
aI7
aI9
aI12
aI10
aI10
aa(lp200
I3
aI4
aI4
aI4
aI5
aI7
aI9
aI5
aI4
aI4
aI9
aI8
aI15
aI10
aI10
aI13
aI13
aI13
aI13
aI16
aa(lp201
I2
aI6
aI8
aI11
aI10
aI13
aI15
aI13
aI13
aI15
aI16
aI16
aI16
aI18
aI18
aI16
aI18
aI14
aI17
aI15
aa(lp202
I5
aI3
aI1
aI8
aI8
aI12
aI13
aI12
aI12
aI14
aI12
aI14
aI14
aI13
aI17
aI13
aI18
aI17
aI16
aI18
aa(lp203
I2
aI4
aI6
aI5
aI8
aI12
aI16
aI18
aI18
aI17
aI16
aI14
aI13
aI13
aI17
aI17
aI13
aI18
aI13
aI16
aa(lp204
I1
aI9
aI6
aI9
aI7
aI9
aI7
aI12
aI10
aI10
aI7
aI12
aI14
aI11
aI14
aI14
aI16
aI14
aI14
aI14
aa(lp205
I3
aI6
aI8
aI4
aI4
aI8
aI9
aI9
aI8
aI9
aI7
aI12
aI10
aI13
aI13
aI10
aI15
aI12
aI10
aI13
aa(lp206
I6
aI8
aI8
aI9
aI4
aI12
aI10
aI12
aI12
aI13
aI12
aI14
aI13
aI12
aI15
aI11
aI11
aI12
aI14
aI10
aa(lp207
I1
aI2
aI6
aI6
aI4
aI11
aI12
aI14
aI12
aI15
aI15
aI14
aI18
aI17
aI18
aI17
aI13
aI18
aI16
aI17
aa(lp208
I6
aI6
aI8
aI9
aI8
aI5
aI5
aI7
aI12
aI11
aI16
aI14
aI13
aI14
aI15
aI17
aI14
aI13
aI14
aI15
aa(lp209
I4
aI6
aI8
aI8
aI7
aI4
aI9
aI8
aI7
aI7
aI12
aI7
aI14
aI15
aI13
aI10
aI15
aI15
aI15
aI17
aa(lp210
I2
aI6
aI5
aI4
aI1
aI5
aI4
aI5
aI1
aI3
aI8
aI9
aI9
aI5
aI12
aI9
aI11
aI7
aI9
aI11
aa(lp211
I2
aI5
aI5
aI6
aI7
aI12
aI10
aI13
aI15
aI13
aI10
aI15
aI10
aI16
aI14
aI14
aI15
aI17
aI16
aI16
aa(lp212
I1
aI9
aI12
aI10
aI12
aI14
aI15
aI17
aI13
aI14
aI17
aI15
aI17
aI16
aI13
aI15
aI14
aI14
aI17
aI15
aa(lp213
I5
aI6
aI1
aI8
aI9
aI8
aI11
aI8
aI11
aI9
aI7
aI8
aI11
aI11
aI10
aI14
aI14
aI15
aI11
aI13
aa(lp214
I2
aI3
aI6
aI9
aI8
aI9
aI15
aI13
aI14
aI15
aI13
aI10
aI17
aI17
aI18
aI14
aI13
aI14
aI13
aI14
aa(lp215
I2
aI1
aI8
aI9
aI5
aI7
aI5
aI8
aI10
aI15
aI13
aI12
aI15
aI14
aI11
aI11
aI13
aI11
aI18
aI14
aa(lp216
I5
aI5
aI4
aI8
aI8
aI10
aI8
aI7
aI14
aI10
aI14
aI11
aI12
aI10
aI12
aI12
aI10
aI13
aI16
aI16
aa(lp217
I3
aI4
aI3
aI5
aI9
aI5
aI8
aI12
aI14
aI13
aI14
aI18
aI17
aI14
aI17
aI16
aI14
aI17
aI17
aI15
aa(lp218
I2
aI5
aI4
aI8
aI8
aI8
aI11
aI15
aI14
aI15
aI14
aI18
aI18
aI18
aI15
aI16
aI17
aI15
aI13
aI17
aa(lp219
I1
aI3
aI6
aI5
aI7
aI10
aI12
aI10
aI10
aI8
aI7
aI15
aI17
aI14
aI13
aI18
aI16
aI14
aI13
aI18
aa(lp220
I1
aI4
aI10
aI12
aI7
aI8
aI8
aI11
aI14
aI15
aI12
aI14
aI14
aI15
aI13
aI10
aI13
aI13
aI13
aI10
aa(lp221
I1
aI1
aI1
aI3
aI5
aI9
aI12
aI7
aI13
aI10
aI15
aI12
aI12
aI15
aI15
aI13
aI15
aI16
aI14
aI18
aa(lp222
I5
aI1
aI7
aI5
aI10
aI7
aI12
aI11
aI15
aI10
aI14
aI10
aI13
aI14
aI11
aI11
aI12
aI11
aI12
aI12
aa(lp223
I2
aI5
aI9
aI5
aI9
aI9
aI11
aI13
aI17
aI18
aI17
aI15
aI15
aI16
aI16
aI13
aI16
aI18
aI17
aI15
aa(lp224
I1
aI9
aI5
aI4
aI7
aI11
aI9
aI12
aI15
aI13
aI12
aI10
aI13
aI11
aI13
aI16
aI18
aI18
aI18
aI15
aa(lp225
I3
aI3
aI3
aI5
aI6
aI9
aI7
aI7
aI10
aI10
aI9
aI11
aI12
aI8
aI7
aI9
aI8
aI12
aI8
aI10
aa(lp226
I2
aI5
aI8
aI12
aI11
aI13
aI10
aI15
aI13
aI15
aI15
aI11
aI11
aI14
aI14
aI16
aI17
aI14
aI14
aI14
aa(lp227
I2
aI5
aI2
aI4
aI9
aI10
aI7
aI7
aI12
aI12
aI10
aI11
aI15
aI15
aI14
aI11
aI10
aI11
aI11
aI15
aa(lp228
I5
aI5
aI8
aI6
aI4
aI10
aI7
aI9
aI9
aI11
aI12
aI9
aI12
aI9
aI14
aI14
aI16
aI16
aI18
aI13
aa(lp229
I6
aI2
aI8
aI7
aI9
aI8
aI6
aI4
aI5
aI9
aI9
aI7
aI12
aI13
aI14
aI14
aI10
aI13
aI14
aI15
aa(lp230
I6
aI4
aI6
aI10
aI13
aI14
aI15
aI14
aI14
aI14
aI11
aI12
aI15
aI10
aI13
aI18
aI17
aI13
aI16
aI16
aa(lp231
I6
aI3
aI9
aI9
aI10
aI14
aI15
aI13
aI17
aI13
aI15
aI15
aI18
aI14
aI15
aI15
aI14
aI13
aI18
aI18
aa(lp232
I2
aI5
aI8
aI8
aI8
aI12
aI12
aI13
aI15
aI11
aI10
aI13
aI15
aI15
aI11
aI15
aI12
aI10
aI11
aI12
aa(lp233
I4
aI9
aI8
aI6
aI9
aI10
aI10
aI12
aI16
aI14
aI15
aI14
aI18
aI18
aI16
aI15
aI13
aI14
aI18
aI16
aa(lp234
I5
aI7
aI6
aI9
aI5
aI7
aI7
aI5
aI7
aI7
aI10
aI11
aI10
aI16
aI17
aI16
aI13
aI15
aI14
aI16
aa(lp235
I5
aI6
aI10
aI13
aI10
aI13
aI13
aI17
aI16
aI17
aI13
aI18
aI17
aI15
aI15
aI18
aI13
aI17
aI13
aI17
aa(lp236
I3
aI3
aI4
aI6
aI4
aI9
aI10
aI12
aI13
aI12
aI10
aI17
aI13
aI15
aI16
aI17
aI18
aI14
aI16
aI17
aa(lp237
I6
aI1
aI5
aI6
aI8
aI7
aI10
aI10
aI15
aI13
aI12
aI12
aI14
aI17
aI17
aI14
aI18
aI15
aI18
aI14
aa(lp238
I6
aI5
aI12
aI11
aI8
aI7
aI8
aI10
aI14
aI15
aI14
aI14
aI11
aI14
aI10
aI13
aI11
aI10
aI12
aI16
aa(lp239
I2
aI1
aI5
aI5
aI9
aI7
aI7
aI10
aI11
aI17
aI14
aI13
aI16
aI15
aI15
aI18
aI18
aI17
aI15
aI14
aa(lp240
I1
aI4
aI5
aI8
aI12
aI11
aI14
aI15
aI11
aI15
aI18
aI13
aI13
aI13
aI17
aI13
aI17
aI16
aI13
aI18
aa(lp241
I6
aI1
aI1
aI4
aI2
aI4
aI8
aI8
aI9
aI7
aI4
aI8
aI5
aI8
aI7
aI11
aI11
aI7
aI12
aI8
aa(lp242
I3
aI7
aI7
aI11
aI12
aI12
aI15
aI13
aI14
aI17
aI14
aI13
aI13
aI15
aI18
aI14
aI13
aI14
aI13
aI13
aa(lp243
I1
aI6
aI7
aI14
aI14
aI14
aI15
aI17
aI15
aI18
aI14
aI14
aI17
aI13
aI14
aI17
aI14
aI18
aI16
aI14
aa(lp244
I6
aI4
aI10
aI7
aI7
aI13
aI14
aI15
aI18
aI16
aI16
aI13
aI15
aI18
aI14
aI17
aI16
aI18
aI16
aI17
aa(lp245
I1
aI2
aI9
aI7
aI4
aI7
aI10
aI15
aI12
aI10
aI12
aI14
aI14
aI15
aI12
aI13
aI13
aI17
aI13
aI18
aa(lp246
I1
aI6
aI8
aI10
aI9
aI10
aI7
aI11
aI12
aI12
aI13
aI12
aI14
aI13
aI10
aI14
aI12
aI17
aI17
aI15
aa(lp247
I5
aI3
aI8
aI9
aI10
aI11
aI11
aI12
aI15
aI16
aI14
aI14
aI16
aI15
aI15
aI16
aI16
aI15
aI14
aI15
aa(lp248
I6
aI2
aI9
aI9
aI5
aI7
aI10
aI8
aI8
aI14
aI10
aI12
aI14
aI12
aI10
aI14
aI10
aI15
aI10
aI11
aa(lp249
I1
aI2
aI5
aI6
aI3
aI3
aI2
aI7
aI6
aI8
aI10
aI10
aI10
aI17
aI18
aI14
aI16
aI13
aI13
aI13
aa(lp250
I4
aI6
aI9
aI5
aI4
aI12
aI7
aI7
aI10
aI12
aI16
aI16
aI18
aI13
aI13
aI17
aI18
aI13
aI13
aI17
aa(lp251
I3
aI1
aI1
aI5
aI9
aI8
aI13
aI13
aI16
aI13
aI15
aI16
aI17
aI18
aI18
aI17
aI16
aI13
aI13
aI16
aa(lp252
I3
aI5
aI5
aI8
aI12
aI13
aI18
aI16
aI18
aI14
aI16
aI16
aI16
aI17
aI17
aI15
aI18
aI14
aI14
aI15
aa(lp253
I6
aI4
aI2
aI6
aI5
aI3
aI9
aI9
aI7
aI8
aI9
aI7
aI10
aI13
aI12
aI13
aI15
aI14
aI15
aI15
aa(lp254
I3
aI5
aI4
aI8
aI6
aI9
aI9
aI10
aI16
aI13
aI14
aI17
aI17
aI16
aI15
aI15
aI13
aI18
aI13
aI13
aa(lp255
I4
aI3
aI1
aI1
aI5
aI6
aI6
aI7
aI13
aI17
aI14
aI15
aI13
aI16
aI18
aI18
aI17
aI17
aI18
aI16
aa(lp256
I4
aI4
aI8
aI5
aI6
aI5
aI8
aI10
aI11
aI8
aI11
aI9
aI10
aI15
aI15
aI11
aI11
aI12
aI14
aI18
aa(lp257
I4
aI5
aI6
aI7
aI9
aI8
aI9
aI10
aI14
aI16
aI18
aI15
aI15
aI13
aI17
aI16
aI18
aI13
aI13
aI14
aa(lp258
I4
aI6
aI6
aI4
aI7
aI13
aI12
aI11
aI15
aI14
aI13
aI15
aI17
aI18
aI13
aI13
aI18
aI18
aI15
aI13
aa(lp259
I6
aI6
aI8
aI8
aI9
aI9
aI10
aI9
aI15
aI14
aI13
aI16
aI15
aI17
aI18
aI15
aI14
aI13
aI18
aI13
aa(lp260
I4
aI3
aI5
aI9
aI8
aI15
aI12
aI11
aI14
aI17
aI15
aI18
aI18
aI17
aI14
aI17
aI17
aI13
aI16
aI14
aa(lp261
I5
aI7
aI8
aI7
aI8
aI9
aI12
aI9
aI11
aI8
aI11
aI9
aI8
aI11
aI10
aI12
aI12
aI11
aI12
aI14
aa(lp262
I1
aI5
aI11
aI8
aI11
aI14
aI14
aI10
aI12
aI14
aI11
aI13
aI11
aI14
aI13
aI11
aI17
aI18
aI17
aI17
aa(lp263
I4
aI2
aI8
aI4
aI5
aI8
aI5
aI4
aI11
aI7
aI15
aI16
aI14
aI15
aI16
aI14
aI15
aI15
aI15
aI14
aa(lp264
I3
aI5
aI9
aI8
aI7
aI8
aI8
aI9
aI8
aI7
aI12
aI14
aI16
aI16
aI15
aI14
aI14
aI16
aI18
aI14
aa(lp265
I1
aI4
aI5
aI2
aI7
aI11
aI12
aI10
aI12
aI8
aI7
aI11
aI12
aI14
aI12
aI13
aI12
aI10
aI16
aI17
aa(lp266
I5
aI8
aI4
aI6
aI7
aI7
aI10
aI15
aI12
aI14
aI18
aI18
aI16
aI14
aI13
aI13
aI17
aI17
aI17
aI18
aa(lp267
I1
aI9
aI9
aI8
aI12
aI7
aI12
aI13
aI10
aI14
aI13
aI14
aI14
aI18
aI18
aI18
aI14
aI13
aI18
aI14
aa(lp268
I2
aI1
aI7
aI7
aI4
aI5
aI6
aI6
aI7
aI9
aI11
aI7
aI10
aI11
aI12
aI13
aI13
aI17
aI13
aI13
aa(lp269
I4
aI1
aI5
aI6
aI4
aI5
aI5
aI5
aI7
aI9
aI6
aI7
aI9
aI12
aI10
aI15
aI13
aI15
aI15
aI18
aa(lp270
I5
aI4
aI2
aI6
aI6
aI7
aI9
aI6
aI5
aI7
aI5
aI11
aI12
aI14
aI11
aI11
aI13
aI18
aI14
aI15
aa(lp271
I3
aI5
aI5
aI5
aI8
aI8
aI6
aI4
aI12
aI14
aI12
aI14
aI13
aI10
aI10
aI10
aI11
aI11
aI14
aI10
aa(lp272
I1
aI2
aI2
aI2
aI1
aI4
aI2
aI2
aI5
aI9
aI8
aI4
aI9
aI8
aI8
aI9
aI9
aI7
aI11
aI12
aa(lp273
I2
aI5
aI1
aI4
aI5
aI7
aI10
aI12
aI10
aI11
aI12
aI12
aI9
aI8
aI10
aI15
aI15
aI13
aI15
aI13
aa(lp274
I3
aI6
aI8
aI11
aI12
aI8
aI13
aI15
aI11
aI14
aI18
aI14
aI14
aI15
aI17
aI13
aI15
aI18
aI17
aI18
aa(lp275
I4
aI6
aI8
aI8
aI11
aI11
aI13
aI12
aI12
aI14
aI10
aI13
aI18
aI16
aI14
aI17
aI16
aI13
aI13
aI14
aa(lp276
I2
aI7
aI9
aI7
aI11
aI8
aI7
aI10
aI10
aI11
aI11
aI15
aI18
aI18
aI14
aI15
aI14
aI17
aI14
aI16
aa(lp277
I1
aI6
aI9
aI10
aI8
aI10
aI14
aI15
aI15
aI12
aI11
aI10
aI17
aI13
aI14
aI17
aI15
aI14
aI16
aI17
aa(lp278
I2
aI8
aI5
aI6
aI6
aI8
aI9
aI6
aI12
aI11
aI15
aI11
aI13
aI11
aI14
aI14
aI14
aI14
aI14
aI14
aa(lp279
I1
aI4
aI2
aI3
aI7
aI8
aI12
aI14
aI11
aI14
aI15
aI13
aI14
aI14
aI12
aI14
aI15
aI15
aI13
aI18
aa(lp280
I5
aI1
aI9
aI9
aI8
aI10
aI9
aI12
aI10
aI13
aI13
aI12
aI14
aI15
aI14
aI15
aI18
aI15
aI15
aI15
aa(lp281
I5
aI5
aI8
aI10
aI11
aI17
aI18
aI13
aI14
aI14
aI18
aI18
aI17
aI15
aI14
aI17
aI18
aI15
aI15
aI16
aa(lp282
I5
aI5
aI10
aI12
aI12
aI11
aI9
aI12
aI10
aI8
aI9
aI14
aI14
aI15
aI14
aI13
aI18
aI15
aI14
aI15
aa(lp283
I3
aI1
aI4
aI9
aI9
aI8
aI13
aI13
aI15
aI15
aI14
aI15
aI18
aI17
aI14
aI14
aI14
aI16
aI18
aI15
aa(lp284
I1
aI1
aI8
aI9
aI4
aI9
aI11
aI8
aI11
aI9
aI10
aI7
aI12
aI12
aI10
aI10
aI11
aI14
aI13
aI18
aa(lp285
I2
aI5
aI2
aI3
aI7
aI8
aI9
aI8
aI7
aI9
aI12
aI14
aI13
aI13
aI14
aI16
aI15
aI17
aI15
aI17
aa(lp286
I2
aI2
aI8
aI10
aI12
aI9
aI11
aI10
aI12
aI10
aI11
aI16
aI17
aI15
aI18
aI18
aI18
aI13
aI13
aI17
aa(lp287
I5
aI2
aI9
aI9
aI8
aI9
aI10
aI14
aI11
aI13
aI15
aI13
aI17
aI18
aI13
aI15
aI16
aI18
aI18
aI18
aa(lp288
I4
aI5
aI8
aI5
aI10
aI8
aI10
aI10
aI10
aI8
aI10
aI11
aI12
aI14
aI15
aI15
aI17
aI13
aI14
aI14
aa(lp289
I1
aI6
aI4
aI9
aI10
aI7
aI8
aI7
aI7
aI8
aI7
aI8
aI12
aI11
aI13
aI15
aI10
aI10
aI15
aI18
aa(lp290
I2
aI8
aI6
aI8
aI11
aI15
aI17
aI17
aI17
aI17
aI16
aI18
aI15
aI17
aI15
aI14
aI16
aI15
aI15
aI17
aa(lp291
I2
aI1
aI4
aI6
aI8
aI11
aI12
aI7
aI11
aI15
aI12
aI15
aI15
aI13
aI17
aI13
aI15
aI16
aI17
aI18
aa(lp292
I2
aI9
aI8
aI4
aI7
aI11
aI15
aI18
aI13
aI15
aI13
aI15
aI15
aI13
aI17
aI13
aI13
aI16
aI13
aI13
aa(lp293
I5
aI5
aI2
aI5
aI2
aI5
aI4
aI8
aI8
aI12
aI10
aI9
aI14
aI13
aI12
aI14
aI15
aI10
aI16
aI14
aa(lp294
I2
aI8
aI11
aI10
aI10
aI12
aI9
aI14
aI14
aI17
aI18
aI18
aI17
aI15
aI13
aI18
aI18
aI16
aI18
aI16
aa(lp295
I6
aI9
aI10
aI11
aI15
aI13
aI14
aI18
aI15
aI18
aI14
aI18
aI15
aI18
aI17
aI14
aI14
aI17
aI17
aI15
aa(lp296
I2
aI5
aI9
aI12
aI14
aI12
aI15
aI12
aI13
aI12
aI13
aI14
aI13
aI13
aI14
aI17
aI13
aI18
aI16
aI15
aa(lp297
I5
aI6
aI4
aI4
aI9
aI10
aI8
aI8
aI11
aI8
aI7
aI8
aI7
aI7
aI10
aI16
aI15
aI14
aI15
aI18
aa(lp298
I6
aI7
aI9
aI10
aI7
aI11
aI10
aI12
aI10
aI13
aI11
aI16
aI13
aI15
aI16
aI15
aI13
aI15
aI16
aI17
aa(lp299
I3
aI3
aI5
aI11
aI12
aI13
aI16
aI16
aI18
aI13
aI17
aI14
aI15
aI13
aI13
aI16
aI14
aI13
aI15
aI14
aa(lp300
I3
aI7
aI8
aI11
aI15
aI10
aI14
aI10
aI11
aI11
aI11
aI10
aI13
aI17
aI13
aI18
aI14
aI18
aI16
aI17
aa(lp301
I5
aI6
aI8
aI6
aI9
aI8
aI9
aI11
aI8
aI9
aI8
aI14
aI17
aI14
aI13
aI14
aI17
aI17
aI15
aI17
aa(lp302
I5
aI3
aI6
aI9
aI11
aI10
aI14
aI11
aI14
aI15
aI13
aI15
aI10
aI13
aI13
aI18
aI17
aI17
aI14
aI13
aa(lp303
I1
aI4
aI12
aI9
aI11
aI14
aI14
aI14
aI12
aI10
aI12
aI14
aI10
aI12
aI11
aI10
aI15
aI14
aI10
aI10
aa(lp304
I6
aI4
aI11
aI15
aI13
aI14
aI15
aI13
aI16
aI16
aI14
aI16
aI17
aI13
aI15
aI15
aI17
aI14
aI14
aI18
aa(lp305
I1
aI1
aI3
aI6
aI5
aI11
aI9
aI9
aI10
aI7
aI11
aI10
aI12
aI11
aI13
aI13
aI13
aI17
aI18
aI16
aa(lp306
I1
aI3
aI7
aI7
aI8
aI11
aI15
aI16
aI17
aI17
aI13
aI18
aI18
aI13
aI18
aI14
aI17
aI18
aI15
aI17
aa(lp307
I2
aI2
aI4
aI9
aI8
aI10
aI10
aI14
aI15
aI16
aI16
aI18
aI16
aI18
aI15
aI13
aI14
aI15
aI18
aI15
aa(lp308
I4
aI1
aI2
aI6
aI8
aI10
aI9
aI10
aI8
aI10
aI14
aI18
aI14
aI16
aI15
aI13
aI14
aI14
aI16
aI17
aa(lp309
I1
aI3
aI4
aI5
aI8
aI6
aI7
aI11
aI18
aI14
aI18
aI13
aI15
aI13
aI14
aI16
aI17
aI13
aI16
aI14
aa(lp310
I1
aI5
aI4
aI6
aI12
aI12
aI8
aI14
aI10
aI11
aI13
aI14
aI10
aI10
aI15
aI15
aI14
aI11
aI17
aI15
aa(lp311
I4
aI1
aI4
aI5
aI8
aI9
aI12
aI7
aI12
aI11
aI9
aI8
aI11
aI12
aI10
aI13
aI15
aI13
aI15
aI15
aa(lp312
I5
aI6
aI5
aI1
aI8
aI7
aI6
aI7
aI9
aI7
aI8
aI7
aI8
aI7
aI9
aI8
aI12
aI11
aI7
aI7
aa(lp313
I5
aI5
aI12
aI11
aI10
aI12
aI11
aI11
aI10
aI12
aI11
aI11
aI12
aI12
aI10
aI13
aI14
aI15
aI14
aI13
aa(lp314
I4
aI3
aI2
aI6
aI4
aI2
aI3
aI5
aI4
aI7
aI4
aI8
aI10
aI11
aI12
aI16
aI17
aI14
aI15
aI17
aa(lp315
I1
aI3
aI4
aI4
aI6
aI10
aI10
aI7
aI8
aI12
aI12
aI8
aI7
aI9
aI11
aI10
aI10
aI7
aI14
aI14
aa(lp316
I4
aI4
aI5
aI8
aI10
aI10
aI13
aI11
aI12
aI13
aI13
aI15
aI18
aI15
aI14
aI14
aI17
aI17
aI17
aI18
aa(lp317
I3
aI3
aI5
aI6
aI9
aI11
aI9
aI12
aI15
aI14
aI12
aI13
aI14
aI15
aI15
aI14
aI17
aI16
aI13
aI14
aa(lp318
I6
aI5
aI7
aI10
aI12
aI11
aI13
aI13
aI10
aI12
aI14
aI15
aI18
aI17
aI13
aI14
aI13
aI18
aI17
aI13
aa(lp319
I6
aI3
aI6
aI9
aI10
aI9
aI7
aI10
aI11
aI7
aI12
aI13
aI13
aI13
aI14
aI18
aI18
aI15
aI17
aI18
aa(lp320
I2
aI8
aI8
aI4
aI9
aI8
aI8
aI8
aI9
aI11
aI11
aI13
aI11
aI18
aI16
aI16
aI14
aI18
aI18
aI16
aa(lp321
I6
aI6
aI3
aI6
aI6
aI12
aI10
aI8
aI9
aI7
aI9
aI12
aI13
aI11
aI10
aI13
aI16
aI13
aI13
aI15
aa(lp322
I3
aI8
aI9
aI6
aI8
aI8
aI15
aI13
aI15
aI15
aI18
aI14
aI16
aI16
aI18
aI15
aI14
aI13
aI16
aI13
aa(lp323
I5
aI7
aI4
aI4
aI11
aI11
aI10
aI12
aI12
aI10
aI11
aI13
aI16
aI16
aI17
aI16
aI17
aI15
aI18
aI13
aa(lp324
I6
aI6
aI2
aI1
aI5
aI6
aI7
aI9
aI8
aI12
aI10
aI8
aI7
aI10
aI11
aI14
aI10
aI15
aI15
aI16
aa(lp325
I6
aI5
aI7
aI6
aI9
aI14
aI12
aI12
aI14
aI12
aI13
aI18
aI18
aI14
aI18
aI14
aI13
aI14
aI13
aI13
aa(lp326
I6
aI9
aI4
aI7
aI10
aI9
aI12
aI15
aI17
aI13
aI14
aI13
aI15
aI15
aI17
aI16
aI14
aI13
aI15
aI17
aa(lp327
I4
aI6
aI4
aI6
aI6
aI6
aI8
aI8
aI8
aI13
aI14
aI18
aI17
aI16
aI17
aI14
aI16
aI15
aI13
aI13
aa(lp328
I6
aI6
aI6
aI10
aI11
aI12
aI10
aI13
aI12
aI15
aI15
aI13
aI17
aI14
aI16
aI16
aI17
aI15
aI18
aI17
aa(lp329
I2
aI1
aI8
aI12
aI8
aI15
aI15
aI16
aI14
aI17
aI16
aI17
aI14
aI17
aI18
aI16
aI14
aI15
aI18
aI16
aa(lp330
I1
aI5
aI9
aI9
aI7
aI11
aI7
aI12
aI11
aI9
aI8
aI15
aI10
aI11
aI12
aI14
aI18
aI13
aI18
aI17
aa(lp331
I6
aI8
aI9
aI9
aI7
aI9
aI10
aI12
aI11
aI11
aI14
aI14
aI11
aI14
aI16
aI13
aI16
aI13
aI15
aI18
aa(lp332
I3
aI5
aI5
aI5
aI8
aI11
aI12
aI13
aI13
aI14
aI18
aI17
aI16
aI16
aI13
aI17
aI16
aI18
aI15
aI17
aa(lp333
I6
aI9
aI7
aI9
aI12
aI12
aI14
aI14
aI15
aI15
aI15
aI13
aI16
aI18
aI16
aI13
aI13
aI13
aI15
aI13
aa(lp334
I3
aI5
aI8
aI7
aI14
aI13
aI17
aI18
aI14
aI18
aI15
aI15
aI16
aI15
aI18
aI15
aI18
aI14
aI14
aI16
aa(lp335
I1
aI6
aI8
aI7
aI7
aI12
aI15
aI11
aI14
aI15
aI18
aI17
aI18
aI14
aI14
aI17
aI18
aI16
aI15
aI13
aa(lp336
I2
aI5
aI1
aI5
aI10
aI7
aI7
aI10
aI8
aI7
aI12
aI11
aI18
aI14
aI13
aI13
aI15
aI13
aI17
aI16
aa(lp337
I4
aI4
aI8
aI8
aI9
aI7
aI10
aI14
aI15
aI13
aI13
aI14
aI17
aI18
aI16
aI18
aI14
aI14
aI17
aI18
aa(lp338
I1
aI9
aI7
aI8
aI10
aI13
aI15
aI14
aI10
aI15
aI14
aI18
aI14
aI16
aI17
aI18
aI16
aI16
aI15
aI15
aa(lp339
I5
aI5
aI4
aI5
aI7
aI11
aI10
aI15
aI12
aI12
aI14
aI12
aI13
aI15
aI14
aI15
aI12
aI13
aI10
aI17
aa(lp340
I4
aI7
aI5
aI4
aI5
aI8
aI4
aI9
aI8
aI10
aI11
aI8
aI8
aI11
aI11
aI13
aI16
aI13
aI17
aI18
aa(lp341
I2
aI7
aI7
aI10
aI11
aI10
aI12
aI15
aI15
aI11
aI14
aI11
aI10
aI10
aI10
aI14
aI12
aI10
aI10
aI12
aa(lp342
I1
aI6
aI3
aI7
aI5
aI12
aI11
aI12
aI8
aI11
aI10
aI13
aI13
aI18
aI17
aI15
aI13
aI17
aI15
aI17
aa(lp343
I1
aI5
aI6
aI12
aI11
aI15
aI15
aI13
aI15
aI14
aI14
aI14
aI12
aI11
aI10
aI12
aI11
aI16
aI13
aI18
aa(lp344
I3
aI7
aI9
aI4
aI4
aI7
aI8
aI11
aI7
aI7
aI7
aI10
aI8
aI12
aI11
aI14
aI15
aI13
aI18
aI16
aa(lp345
I3
aI3
aI7
aI8
aI8
aI9
aI13
aI13
aI14
aI15
aI17
aI18
aI18
aI15
aI15
aI17
aI16
aI18
aI15
aI14
aa(lp346
I4
aI8
aI9
aI7
aI12
aI10
aI8
aI7
aI11
aI12
aI10
aI12
aI14
aI11
aI14
aI15
aI15
aI16
aI17
aI15
aa(lp347
I1
aI3
aI2
aI3
aI9
aI5
aI11
aI10
aI10
aI12
aI7
aI9
aI10
aI11
aI14
aI14
aI18
aI14
aI18
aI16
aa(lp348
I5
aI4
aI6
aI4
aI8
aI10
aI10
aI18
aI15
aI15
aI16
aI13
aI15
aI13
aI17
aI14
aI14
aI14
aI17
aI16
aa(lp349
I2
aI1
aI6
aI5
aI4
aI9
aI8
aI7
aI11
aI11
aI10
aI10
aI9
aI14
aI11
aI11
aI14
aI13
aI18
aI15
aa(lp350
I6
aI5
aI2
aI3
aI8
aI8
aI9
aI7
aI5
aI12
aI14
aI16
aI18
aI16
aI17
aI16
aI18
aI16
aI18
aI17
aa(lp351
I3
aI7
aI8
aI10
aI9
aI10
aI8
aI10
aI13
aI17
aI15
aI17
aI16
aI16
aI16
aI14
aI14
aI18
aI14
aI14
aa(lp352
I2
aI2
aI6
aI9
aI9
aI10
aI10
aI12
aI11
aI14
aI13
aI11
aI11
aI18
aI16
aI14
aI14
aI18
aI14
aI15
aa(lp353
I2
aI1
aI6
aI5
aI9
aI7
aI7
aI10
aI9
aI12
aI12
aI15
aI14
aI14
aI18
aI17
aI16
aI15
aI15
aI14
aa(lp354
I4
aI4
aI9
aI4
aI4
aI6
aI9
aI4
aI9
aI12
aI8
aI12
aI10
aI10
aI10
aI12
aI14
aI14
aI13
aI13
aa(lp355
I5
aI2
aI4
aI8
aI11
aI12
aI11
aI14
aI11
aI11
aI18
aI14
aI18
aI14
aI16
aI18
aI15
aI18
aI16
aI15
aa(lp356
I3
aI5
aI2
aI5
aI4
aI3
aI9
aI9
aI7
aI7
aI9
aI10
aI11
aI11
aI18
aI16
aI14
aI18
aI18
aI16
aa(lp357
I4
aI6
aI5
aI4
aI10
aI12
aI9
aI14
aI16
aI17
aI14
aI13
aI17
aI13
aI18
aI16
aI14
aI14
aI16
aI18
aa(lp358
I5
aI6
aI9
aI8
aI12
aI12
aI7
aI12
aI10
aI12
aI7
aI12
aI15
aI13
aI13
aI17
aI18
aI13
aI18
aI18
aa(lp359
I6
aI3
aI7
aI5
aI8
aI10
aI8
aI15
aI13
aI14
aI12
aI14
aI11
aI14
aI17
aI13
aI14
aI14
aI13
aI17
aa(lp360
I2
aI5
aI1
aI6
aI6
aI9
aI4
aI9
aI9
aI11
aI11
aI8
aI10
aI11
aI11
aI13
aI14
aI17
aI14
aI13
aa(lp361
I2
aI2
aI7
aI9
aI6
aI9
aI6
aI11
aI7
aI12
aI7
aI11
aI13
aI15
aI14
aI14
aI12
aI11
aI14
aI14
aa(lp362
I1
aI5
aI1
aI4
aI4
aI8
aI11
aI10
aI9
aI14
aI15
aI10
aI14
aI14
aI10
aI11
aI12
aI10
aI18
aI14
aa(lp363
I2
aI4
aI11
aI7
aI9
aI12
aI13
aI11
aI14
aI12
aI16
aI15
aI14
aI14
aI18
aI14
aI16
aI17
aI15
aI13
aa(lp364
I4
aI7
aI6
aI9
aI6
aI7
aI8
aI10
aI14
aI13
aI13
aI14
aI11
aI10
aI12
aI11
aI13
aI15
aI14
aI13
aa(lp365
I1
aI3
aI1
aI7
aI9
aI6
aI8
aI11
aI10
aI18
aI17
aI17
aI18
aI15
aI17
aI18
aI17
aI17
aI13
aI18
aa(lp366
I4
aI2
aI3
aI4
aI4
aI9
aI12
aI10
aI7
aI8
aI7
aI12
aI12
aI11
aI9
aI8
aI7
aI11
aI8
aI11
aa(lp367
I1
aI5
aI8
aI5
aI6
aI4
aI10
aI7
aI14
aI12
aI17
aI13
aI15
aI18
aI17
aI13
aI18
aI13
aI16
aI18
aa(lp368
I1
aI5
aI6
aI3
aI5
aI7
aI8
aI10
aI15
aI15
aI15
aI14
aI14
aI15
aI14
aI16
aI18
aI16
aI17
aI16
aa(lp369
I3
aI6
aI8
aI6
aI5
aI12
aI10
aI14
aI15
aI10
aI13
aI10
aI13
aI12
aI13
aI12
aI11
aI15
aI10
aI15
aa(lp370
I1
aI4
aI5
aI5
aI7
aI8
aI10
aI7
aI14
aI10
aI14
aI18
aI16
aI15
aI14
aI17
aI14
aI18
aI13
aI16
aa(lp371
I3
aI2
aI6
aI7
aI8
aI6
aI10
aI7
aI12
aI11
aI12
aI11
aI9
aI15
aI16
aI13
aI14
aI13
aI14
aI18
aa(lp372
I6
aI8
aI6
aI8
aI7
aI5
aI6
aI5
aI7
aI12
aI15
aI15
aI15
aI10
aI15
aI10
aI12
aI13
aI11
aI14
aa(lp373
I4
aI4
aI2
aI6
aI5
aI7
aI9
aI9
aI9
aI7
aI8
aI15
aI12
aI14
aI14
aI15
aI15
aI17
aI16
aI18
aa(lp374
I1
aI6
aI10
aI8
aI14
aI11
aI13
aI10
aI14
aI14
aI15
aI12
aI14
aI17
aI14
aI18
aI14
aI18
aI15
aI14
aa(lp375
I5
aI9
aI7
aI11
aI14
aI15
aI13
aI18
aI15
aI14
aI13
aI17
aI15
aI17
aI17
aI16
aI15
aI18
aI13
aI14
aa(lp376
I1
aI5
aI6
aI2
aI9
aI4
aI12
aI9
aI15
aI15
aI11
aI11
aI13
aI10
aI10
aI14
aI17
aI18
aI17
aI17
aa(lp377
I6
aI5
aI2
aI1
aI4
aI9
aI11
aI7
aI7
aI8
aI11
aI12
aI12
aI17
aI18
aI16
aI17
aI17
aI16
aI13
aa(lp378
I5
aI5
aI10
aI12
aI10
aI10
aI10
aI10
aI8
aI11
aI10
aI15
aI15
aI11
aI12
aI14
aI17
aI17
aI17
aI17
aa(lp379
I1
aI1
aI2
aI2
aI5
aI6
aI6
aI4
aI9
aI6
aI8
aI8
aI8
aI11
aI8
aI12
aI12
aI10
aI14
aI14
aa(lp380
I3
aI6
aI6
aI12
aI8
aI11
aI7
aI11
aI12
aI14
aI13
aI14
aI15
aI16
aI16
aI13
aI14
aI13
aI14
aI13
aa(lp381
I3
aI7
aI10
aI13
aI15
aI15
aI15
aI15
aI16
aI18
aI18
aI18
aI14
aI13
aI14
aI13
aI17
aI13
aI13
aI14
aa(lp382
I3
aI9
aI8
aI11
aI10
aI11
aI17
aI13
aI16
aI14
aI15
aI14
aI18
aI15
aI18
aI16
aI15
aI14
aI16
aI18
aa(lp383
I5
aI1
aI8
aI7
aI6
aI10
aI11
aI12
aI15
aI11
aI13
aI13
aI14
aI17
aI14
aI18
aI15
aI15
aI18
aI17
aa(lp384
I5
aI9
aI12
aI12
aI7
aI7
aI8
aI9
aI13
aI14
aI12
aI11
aI10
aI14
aI13
aI14
aI10
aI16
aI17
aI14
aa(lp385
I5
aI3
aI8
aI6
aI9
aI8
aI7
aI7
aI8
aI5
aI11
aI10
aI14
aI15
aI18
aI17
aI18
aI16
aI13
aI15
aa(lp386
I4
aI9
aI6
aI7
aI6
aI8
aI6
aI8
aI12
aI9
aI7
aI11
aI15
aI17
aI14
aI13
aI13
aI16
aI17
aI15
aa(lp387
I1
aI5
aI5
aI10
aI8
aI7
aI7
aI11
aI13
aI13
aI18
aI17
aI18
aI13
aI13
aI13
aI14
aI14
aI13
aI16
aa(lp388
I4
aI6
aI2
aI9
aI6
aI6
aI8
aI5
aI4
aI9
aI7
aI10
aI9
aI7
aI7
aI8
aI15
aI15
aI16
aI18
aa(lp389
I1
aI8
aI12
aI14
aI15
aI15
aI16
aI14
aI15
aI15
aI17
aI15
aI15
aI16
aI14
aI18
aI18
aI16
aI13
aI17
aa(lp390
I4
aI9
aI4
aI7
aI5
aI7
aI9
aI9
aI11
aI8
aI12
aI9
aI11
aI13
aI16
aI15
aI13
aI18
aI14
aI15
aa(lp391
I2
aI2
aI4
aI7
aI7
aI4
aI11
aI8
aI11
aI13
aI11
aI13
aI13
aI13
aI13
aI18
aI13
aI16
aI14
aI15
aa(lp392
I2
aI1
aI9
aI11
aI9
aI9
aI9
aI9
aI13
aI13
aI18
aI14
aI17
aI15
aI18
aI16
aI14
aI13
aI14
aI16
aa(lp393
I5
aI9
aI7
aI7
aI9
aI12
aI8
aI10
aI12
aI12
aI10
aI10
aI10
aI14
aI11
aI15
aI12
aI11
aI11
aI15
aa(lp394
I2
aI5
aI9
aI8
aI4
aI6
aI8
aI14
aI10
aI15
aI15
aI18
aI14
aI16
aI13
aI16
aI13
aI18
aI17
aI17
aa(lp395
I5
aI1
aI2
aI5
aI9
aI5
aI7
aI7
aI7
aI9
aI11
aI11
aI9
aI7
aI9
aI14
aI17
aI15
aI18
aI17
aa(lp396
I6
aI4
aI4
aI9
aI7
aI10
aI8
aI11
aI11
aI14
aI15
aI14
aI13
aI14
aI17
aI16
aI16
aI17
aI17
aI15
aa(lp397
I4
aI9
aI9
aI13
aI18
aI15
aI14
aI16
aI15
aI18
aI17
aI13
aI13
aI15
aI18
aI14
aI18
aI14
aI15
aI18
aa(lp398
I5
aI6
aI4
aI9
aI8
aI8
aI10
aI11
aI7
aI7
aI9
aI7
aI12
aI12
aI12
aI8
aI12
aI11
aI12
aI10
aa(lp399
I6
aI9
aI6
aI9
aI8
aI9
aI12
aI11
aI17
aI13
aI14
aI17
aI13
aI13
aI14
aI17
aI18
aI14
aI15
aI13
aa(lp400
I4
aI6
aI4
aI6
aI5
aI10
aI15
aI15
aI12
aI12
aI15
aI14
aI12
aI13
aI17
aI18
aI14
aI14
aI17
aI15
aa(lp401
I4
aI2
aI8
aI10
aI7
aI10
aI8
aI14
aI14
aI17
aI17
aI16
aI13
aI14
aI17
aI17
aI18
aI14
aI15
aI18
aa(lp402
I2
aI2
aI6
aI6
aI7
aI4
aI8
aI11
aI9
aI11
aI11
aI11
aI15
aI10
aI15
aI13
aI12
aI15
aI15
aI13
aa(lp403
I2
aI5
aI4
aI7
aI6
aI6
aI4
aI8
aI5
aI5
aI6
aI10
aI11
aI12
aI12
aI18
aI13
aI18
aI14
aI14
aa(lp404
I2
aI5
aI4
aI9
aI7
aI12
aI10
aI7
aI8
aI11
aI10
aI9
aI7
aI12
aI11
aI8
aI7
aI14
aI13
aI15
aa(lp405
I1
aI1
aI2
aI4
aI6
aI1
aI4
aI8
aI11
aI8
aI11
aI12
aI12
aI12
aI14
aI11
aI17
aI14
aI14
aI16
aa(lp406
I3
aI9
aI9
aI9
aI9
aI9
aI12
aI12
aI12
aI8
aI10
aI14
aI13
aI14
aI17
aI15
aI17
aI14
aI15
aI15
aa(lp407
I1
aI2
aI7
aI7
aI7
aI9
aI6
aI9
aI4
aI7
aI12
aI11
aI14
aI10
aI12
aI10
aI11
aI11
aI14
aI11
aa(lp408
I6
aI8
aI7
aI15
aI13
aI11
aI15
aI15
aI16
aI13
aI15
aI16
aI13
aI13
aI16
aI17
aI17
aI18
aI18
aI15
aa(lp409
I4
aI5
aI9
aI9
aI11
aI7
aI14
aI11
aI11
aI12
aI14
aI14
aI14
aI10
aI13
aI15
aI10
aI11
aI12
aI14
aa(lp410
I6
aI2
aI5
aI10
aI14
aI15
aI14
aI13
aI15
aI14
aI13
aI15
aI18
aI16
aI18
aI17
aI16
aI14
aI13
aI14
aa(lp411
I3
aI7
aI8
aI9
aI9
aI5
aI12
aI7
aI8
aI13
aI12
aI13
aI13
aI13
aI10
aI13
aI11
aI15
aI13
aI11
aa(lp412
I2
aI8
aI7
aI4
aI8
aI5
aI4
aI9
aI8
aI7
aI7
aI9
aI7
aI8
aI8
aI10
aI9
aI7
aI8
aI10
aa(lp413
I5
aI3
aI6
aI4
aI6
aI8
aI7
aI12
aI11
aI7
aI8
aI7
aI9
aI10
aI8
aI11
aI17
aI16
aI14
aI16
aa(lp414
I4
aI6
aI6
aI4
aI4
aI10
aI14
aI15
aI18
aI14
aI17
aI13
aI13
aI13
aI17
aI16
aI15
aI13
aI13
aI15
aa(lp415
I3
aI4
aI1
aI2
aI9
aI6
aI9
aI12
aI7
aI10
aI10
aI7
aI13
aI12
aI17
aI15
aI14
aI17
aI18
aI18
aa(lp416
I2
aI3
aI8
aI7
aI11
aI10
aI12
aI14
aI13
aI13
aI13
aI15
aI13
aI13
aI15
aI18
aI14
aI14
aI16
aI16
aa(lp417
I1
aI3
aI8
aI9
aI8
aI9
aI14
aI15
aI15
aI15
aI16
aI17
aI18
aI15
aI18
aI15
aI14
aI17
aI13
aI14
aa(lp418
I3
aI5
aI1
aI6
aI8
aI9
aI7
aI12
aI11
aI14
aI15
aI15
aI17
aI13
aI16
aI16
aI16
aI17
aI14
aI13
aa(lp419
I4
aI4
aI5
aI9
aI10
aI14
aI13
aI17
aI17
aI15
aI13
aI15
aI13
aI13
aI14
aI17
aI17
aI16
aI13
aI13
aa(lp420
I5
aI7
aI12
aI13
aI12
aI12
aI10
aI11
aI16
aI15
aI15
aI17
aI16
aI14
aI15
aI16
aI16
aI14
aI14
aI16
aa(lp421
I4
aI3
aI2
aI7
aI11
aI11
aI12
aI8
aI10
aI13
aI11
aI10
aI14
aI12
aI13
aI15
aI18
aI18
aI17
aI13
aa(lp422
I2
aI2
aI1
aI4
aI4
aI9
aI8
aI10
aI9
aI9
aI8
aI12
aI8
aI11
aI12
aI9
aI12
aI13
aI12
aI13
aa(lp423
I5
aI2
aI6
aI4
aI7
aI8
aI6
aI10
aI9
aI14
aI13
aI12
aI10
aI13
aI10
aI14
aI15
aI14
aI10
aI17
aa(lp424
I1
aI6
aI9
aI7
aI9
aI7
aI10
aI11
aI14
aI10
aI15
aI15
aI15
aI15
aI16
aI17
aI13
aI14
aI14
aI18
aa(lp425
I3
aI4
aI10
aI9
aI8
aI13
aI14
aI15
aI13
aI18
aI17
aI15
aI13
aI17
aI17
aI15
aI18
aI16
aI16
aI14
aa(lp426
I5
aI4
aI8
aI10
aI11
aI18
aI18
aI17
aI18
aI16
aI16
aI13
aI16
aI14
aI13
aI14
aI18
aI16
aI18
aI13
aa(lp427
I4
aI2
aI8
aI8
aI8
aI12
aI14
aI14
aI15
aI14
aI14
aI13
aI14
aI15
aI17
aI18
aI17
aI16
aI18
aI18
aa(lp428
I2
aI3
aI8
aI6
aI5
aI12
aI7
aI10
aI13
aI11
aI14
aI12
aI11
aI13
aI15
aI14
aI13
aI17
aI16
aI14
aa(lp429
I1
aI2
aI6
aI8
aI11
aI7
aI11
aI8
aI11
aI11
aI7
aI10
aI12
aI13
aI18
aI14
aI13
aI18
aI13
aI15
aa(lp430
I2
aI4
aI9
aI9
aI8
aI12
aI10
aI15
aI17
aI16
aI13
aI15
aI13
aI16
aI15
aI13
aI13
aI17
aI15
aI13
aa(lp431
I5
aI2
aI4
aI5
aI4
aI9
aI9
aI12
aI7
aI9
aI8
aI10
aI12
aI11
aI12
aI15
aI12
aI15
aI11
aI11
aa(lp432
I2
aI6
aI7
aI4
aI7
aI10
aI13
aI12
aI15
aI13
aI10
aI15
aI14
aI12
aI13
aI11
aI14
aI15
aI15
aI14
aa(lp433
I3
aI1
aI5
aI10
aI7
aI7
aI8
aI10
aI7
aI12
aI10
aI12
aI10
aI14
aI15
aI12
aI13
aI15
aI14
aI14
aa(lp434
I1
aI4
aI4
aI3
aI6
aI4
aI10
aI12
aI13
aI15
aI15
aI14
aI13
aI18
aI18
aI14
aI16
aI18
aI13
aI15
aa(lp435
I3
aI2
aI3
aI5
aI6
aI8
aI10
aI15
aI15
aI13
aI11
aI12
aI13
aI13
aI10
aI12
aI16
aI14
aI15
aI14
aa(lp436
I6
aI4
aI2
aI3
aI5
aI9
aI11
aI7
aI7
aI8
aI7
aI10
aI12
aI13
aI15
aI16
aI13
aI13
aI14
aI17
aa(lp437
I2
aI1
aI6
aI4
aI9
aI9
aI7
aI9
aI8
aI10
aI9
aI13
aI13
aI13
aI13
aI12
aI16
aI16
aI14
aI15
aa(lp438
I5
aI4
aI1
aI4
aI3
aI5
aI7
aI4
aI11
aI11
aI12
aI14
aI18
aI16
aI16
aI16
aI14
aI16
aI18
aI18
aa(lp439
I6
aI8
aI6
aI5
aI10
aI12
aI8
aI12
aI10
aI7
aI9
aI10
aI12
aI8
aI10
aI9
aI12
aI11
aI9
aI9
aa(lp440
I5
aI6
aI4
aI8
aI7
aI10
aI12
aI14
aI16
aI13
aI13
aI15
aI17
aI18
aI17
aI15
aI13
aI14
aI14
aI18
aa(lp441
I5
aI4
aI12
aI10
aI11
aI15
aI10
aI11
aI15
aI15
aI11
aI14
aI10
aI13
aI12
aI13
aI13
aI12
aI14
aI17
aa(lp442
I2
aI6
aI5
aI6
aI10
aI11
aI13
aI12
aI13
aI13
aI15
aI14
aI15
aI14
aI14
aI13
aI17
aI17
aI15
aI14
aa(lp443
I6
aI7
aI8
aI8
aI9
aI4
aI9
aI10
aI9
aI10
aI15
aI11
aI11
aI12
aI14
aI15
aI11
aI13
aI11
aI14
aa(lp444
I2
aI6
aI7
aI8
aI10
aI11
aI15
aI10
aI11
aI12
aI11
aI14
aI14
aI13
aI17
aI13
aI14
aI14
aI13
aI17
aa(lp445
I6
aI3
aI7
aI9
aI13
aI15
aI11
aI13
aI10
aI14
aI10
aI12
aI14
aI15
aI17
aI16
aI14
aI18
aI18
aI14
aa(lp446
I2
aI6
aI6
aI8
aI8
aI11
aI13
aI13
aI11
aI14
aI10
aI15
aI13
aI14
aI10
aI14
aI13
aI12
aI11
aI13
aa(lp447
I4
aI1
aI4
aI5
aI3
aI3
aI4
aI12
aI7
aI7
aI11
aI11
aI13
aI14
aI17
aI15
aI16
aI13
aI15
aI17
aa(lp448
I3
aI4
aI9
aI12
aI10
aI11
aI13
aI14
aI14
aI14
aI17
aI15
aI17
aI15
aI17
aI13
aI15
aI18
aI16
aI16
aa(lp449
I3
aI3
aI5
aI4
aI11
aI8
aI7
aI11
aI11
aI10
aI13
aI10
aI15
aI18
aI15
aI17
aI13
aI13
aI14
aI15
aa(lp450
I4
aI4
aI9
aI8
aI4
aI10
aI8
aI8
aI8
aI15
aI13
aI16
aI16
aI13
aI17
aI18
aI13
aI15
aI13
aI18
aa(lp451
I4
aI3
aI9
aI4
aI9
aI10
aI10
aI10
aI11
aI13
aI17
aI14
aI15
aI16
aI18
aI14
aI13
aI13
aI15
aI16
aa(lp452
I4
aI2
aI5
aI8
aI7
aI10
aI9
aI15
aI12
aI15
aI14
aI14
aI17
aI14
aI14
aI14
aI13
aI17
aI13
aI15
aa(lp453
I6
aI9
aI10
aI7
aI14
aI10
aI12
aI11
aI11
aI14
aI11
aI16
aI13
aI18
aI15
aI15
aI14
aI13
aI18
aI18
aa(lp454
I4
aI8
aI12
aI14
aI10
aI12
aI12
aI14
aI12
aI14
aI11
aI15
aI16
aI18
aI17
aI15
aI13
aI16
aI16
aI17
aa(lp455
I1
aI7
aI8
aI7
aI9
aI8
aI8
aI12
aI14
aI12
aI14
aI14
aI18
aI16
aI13
aI13
aI13
aI15
aI13
aI15
aa(lp456
I5
aI9
aI7
aI9
aI11
aI7
aI9
aI12
aI13
aI10
aI11
aI14
aI15
aI15
aI14
aI15
aI17
aI13
aI18
aI15
aa(lp457
I4
aI5
aI5
aI11
aI12
aI10
aI15
aI15
aI11
aI13
aI10
aI11
aI15
aI13
aI13
aI16
aI15
aI17
aI13
aI14
aa(lp458
I2
aI2
aI4
aI9
aI10
aI11
aI12
aI10
aI15
aI10
aI15
aI11
aI13
aI18
aI18
aI18
aI17
aI18
aI17
aI15
aa(lp459
I3
aI5
aI5
aI6
aI9
aI12
aI11
aI9
aI10
aI14
aI15
aI18
aI18
aI17
aI18
aI18
aI16
aI18
aI13
aI14
aa(lp460
I5
aI1
aI5
aI5
aI2
aI4
aI7
aI8
aI12
aI11
aI11
aI13
aI17
aI15
aI18
aI18
aI15
aI14
aI16
aI16
aa(lp461
I5
aI6
aI5
aI12
aI11
aI8
aI12
aI11
aI13
aI13
aI14
aI13
aI15
aI12
aI12
aI15
aI12
aI13
aI14
aI16
aa(lp462
I6
aI2
aI1
aI4
aI4
aI7
aI12
aI12
aI12
aI7
aI12
aI10
aI15
aI14
aI15
aI14
aI13
aI15
aI17
aI13
aa(lp463
I5
aI4
aI2
aI6
aI6
aI5
aI12
aI15
aI10
aI13
aI14
aI12
aI14
aI17
aI15
aI14
aI17
aI13
aI17
aI15
aa(lp464
I4
aI6
aI11
aI15
aI10
aI14
aI15
aI18
aI13
aI14
aI14
aI18
aI17
aI16
aI17
aI18
aI13
aI13
aI13
aI14
aa(lp465
I5
aI8
aI5
aI7
aI11
aI7
aI15
aI14
aI17
aI16
aI16
aI13
aI15
aI15
aI15
aI15
aI14
aI16
aI16
aI15
aa(lp466
I1
aI6
aI12
aI11
aI14
aI17
aI18
aI16
aI14
aI14
aI16
aI13
aI16
aI18
aI16
aI17
aI13
aI15
aI15
aI15
aa(lp467
I3
aI8
aI11
aI10
aI8
aI10
aI11
aI14
aI12
aI10
aI14
aI10
aI15
aI11
aI17
aI15
aI18
aI14
aI18
aI15
aa(lp468
I1
aI6
aI12
aI13
aI11
aI18
aI15
aI13
aI18
aI14
aI13
aI13
aI16
aI17
aI16
aI17
aI17
aI13
aI15
aI18
aa(lp469
I3
aI3
aI6
aI1
aI4
aI11
aI9
aI7
aI9
aI10
aI12
aI12
aI13
aI12
aI12
aI10
aI11
aI14
aI13
aI14
aa(lp470
I3
aI9
aI4
aI5
aI8
aI12
aI11
aI10
aI11
aI10
aI15
aI15
aI10
aI15
aI11
aI13
aI12
aI10
aI13
aI11
aa(lp471
I3
aI7
aI6
aI5
aI7
aI7
aI4
aI6
aI5
aI8
aI6
aI12
aI11
aI12
aI8
aI10
aI15
aI12
aI11
aI15
aa(lp472
I4
aI3
aI4
aI9
aI4
aI8
aI5
aI8
aI7
aI9
aI9
aI11
aI10
aI11
aI17
aI18
aI15
aI13
aI16
aI15
aa(lp473
I6
aI7
aI5
aI6
aI5
aI8
aI9
aI8
aI12
aI13
aI16
aI14
aI16
aI18
aI15
aI18
aI15
aI18
aI16
aI13
aa(lp474
I4
aI4
aI4
aI7
aI12
aI9
aI9
aI10
aI10
aI7
aI8
aI8
aI14
aI10
aI11
aI11
aI16
aI18
aI13
aI15
aa(lp475
I2
aI1
aI3
aI9
aI5
aI5
aI7
aI7
aI12
aI7
aI11
aI11
aI13
aI15
aI17
aI17
aI13
aI14
aI13
aI15
aa(lp476
I4
aI5
aI7
aI5
aI8
aI5
aI12
aI14
aI14
aI10
aI10
aI14
aI11
aI12
aI13
aI13
aI10
aI10
aI11
aI13
aa(lp477
I1
aI6
aI2
aI9
aI5
aI10
aI14
aI10
aI12
aI14
aI15
aI10
aI15
aI14
aI15
aI15
aI12
aI15
aI13
aI18
aa(lp478
I6
aI9
aI7
aI8
aI8
aI10
aI12
aI13
aI12
aI13
aI11
aI13
aI14
aI14
aI14
aI16
aI16
aI14
aI18
aI14
aa(lp479
I4
aI7
aI4
aI7
aI10
aI12
aI14
aI15
aI12
aI15
aI13
aI15
aI15
aI18
aI15
aI18
aI14
aI16
aI13
aI18
aa(lp480
I1
aI4
aI9
aI8
aI12
aI13
aI12
aI15
aI18
aI17
aI17
aI16
aI18
aI14
aI17
aI14
aI18
aI15
aI18
aI15
aa(lp481
I2
aI6
aI12
aI12
aI11
aI10
aI10
aI14
aI18
aI16
aI17
aI13
aI15
aI16
aI18
aI15
aI13
aI14
aI16
aI17
aa(lp482
I5
aI6
aI8
aI9
aI7
aI11
aI11
aI11
aI7
aI9
aI9
aI9
aI10
aI12
aI10
aI7
aI8
aI12
aI13
aI15
aa(lp483
I3
aI1
aI4
aI9
aI12
aI10
aI12
aI13
aI12
aI11
aI14
aI13
aI11
aI12
aI13
aI15
aI17
aI13
aI18
aI15
aa(lp484
I5
aI1
aI4
aI7
aI7
aI10
aI9
aI10
aI12
aI8
aI11
aI7
aI11
aI15
aI16
aI17
aI13
aI15
aI14
aI17
aa(lp485
I1
aI6
aI4
aI4
aI6
aI12
aI8
aI7
aI8
aI8
aI8
aI11
aI12
aI9
aI11
aI15
aI15
aI18
aI17
aI15
aa(lp486
I5
aI9
aI7
aI5
aI7
aI8
aI11
aI9
aI13
aI11
aI13
aI14
aI12
aI15
aI10
aI10
aI12
aI16
aI15
aI13
aa(lp487
I5
aI5
aI7
aI9
aI10
aI8
aI7
aI7
aI12
aI7
aI10
aI8
aI7
aI10
aI8
aI12
aI13
aI13
aI10
aI10
aa(lp488
I6
aI5
aI4
aI8
aI9
aI4
aI10
aI11
aI13
aI11
aI15
aI14
aI15
aI10
aI15
aI11
aI14
aI11
aI16
aI15
aa(lp489
I2
aI4
aI8
aI8
aI10
aI9
aI9
aI11
aI8
aI8
aI11
aI15
aI13
aI14
aI17
aI18
aI15
aI14
aI14
aI18
aa(lp490
I1
aI9
aI4
aI8
aI8
aI7
aI7
aI7
aI9
aI12
aI12
aI10
aI14
aI13
aI12
aI12
aI11
aI12
aI10
aI12
aa(lp491
I1
aI4
aI4
aI8
aI4
aI5
aI7
aI12
aI11
aI14
aI13
aI11
aI15
aI10
aI11
aI14
aI12
aI12
aI14
aI13
aa(lp492
I1
aI3
aI9
aI9
aI9
aI12
aI8
aI10
aI13
aI14
aI12
aI13
aI13
aI17
aI17
aI15
aI17
aI13
aI17
aI18
aa(lp493
I5
aI6
aI8
aI8
aI12
aI9
aI8
aI12
aI10
aI15
aI15
aI17
aI16
aI16
aI13
aI15
aI16
aI15
aI15
aI17
aa(lp494
I1
aI1
aI3
aI9
aI10
aI12
aI12
aI13
aI10
aI14
aI16
aI14
aI15
aI18
aI15
aI18
aI17
aI16
aI14
aI15
aa(lp495
I3
aI5
aI3
aI5
aI9
aI9
aI7
aI8
aI8
aI7
aI9
aI10
aI13
aI11
aI12
aI13
aI12
aI13
aI13
aI15
aa(lp496
I4
aI6
aI4
aI8
aI12
aI11
aI7
aI11
aI13
aI15
aI12
aI12
aI11
aI15
aI10
aI14
aI13
aI15
aI18
aI14
aa(lp497
I1
aI8
aI6
aI7
aI8
aI7
aI10
aI10
aI10
aI15
aI13
aI13
aI15
aI13
aI16
aI14
aI14
aI16
aI16
aI16
aa(lp498
I4
aI7
aI8
aI5
aI11
aI10
aI12
aI12
aI12
aI15
aI11
aI12
aI14
aI14
aI12
aI13
aI17
aI14
aI15
aI15
aa(lp499
I6
aI5
aI7
aI6
aI8
aI10
aI8
aI12
aI12
aI14
aI14
aI16
aI15
aI18
aI14
aI16
aI14
aI14
aI16
aI16
aa(lp500
I5
aI5
aI8
aI6
aI7
aI12
aI12
aI13
aI12
aI12
aI11
aI10
aI11
aI14
aI11
aI13
aI12
aI10
aI10
aI13
aa(lp501
I5
aI6
aI8
aI14
aI12
aI14
aI10
aI13
aI18
aI14
aI18
aI14
aI17
aI17
aI13
aI16
aI14
aI14
aI18
aI15
aa(lp502
I1
aI5
aI2
aI6
aI11
aI12
aI8
aI8
aI10
aI12
aI9
aI11
aI7
aI14
aI12
aI11
aI15
aI15
aI13
aI14
aa(lp503
I4
aI3
aI8
aI8
aI8
aI6
aI7
aI7
aI12
aI11
aI15
aI13
aI12
aI10
aI12
aI13
aI14
aI16
aI13
aI16
aa(lp504
I3
aI6
aI8
aI9
aI7
aI8
aI5
aI5
aI7
aI11
aI8
aI11
aI16
aI16
aI18
aI18
aI16
aI18
aI13
aI13
aa(lp505
I3
aI4
aI5
aI11
aI11
aI11
aI12
aI11
aI14
aI14
aI12
aI16
aI18
aI14
aI14
aI18
aI15
aI14
aI18
aI16
aa(lp506
I3
aI8
aI9
aI7
aI7
aI10
aI15
aI18
aI16
aI16
aI16
aI15
aI14
aI18
aI13
aI16
aI13
aI14
aI14
aI13
aa(lp507
I2
aI3
aI7
aI5
aI7
aI12
aI9
aI10
aI11
aI9
aI11
aI7
aI14
aI16
aI13
aI15
aI17
aI18
aI18
aI16
aa(lp508
I3
aI2
aI9
aI8
aI5
aI7
aI12
aI13
aI11
aI10
aI13
aI14
aI14
aI13
aI15
aI14
aI15
aI14
aI16
aI15
aa(lp509
I4
aI6
aI4
aI9
aI7
aI4
aI8
aI6
aI4
aI4
aI5
aI9
aI7
aI10
aI12
aI11
aI12
aI14
aI18
aI16
aa(lp510
I2
aI3
aI8
aI10
aI8
aI8
aI12
aI12
aI11
aI10
aI10
aI14
aI14
aI15
aI14
aI13
aI17
aI18
aI15
aI13
aa(lp511
I1
aI4
aI8
aI9
aI10
aI10
aI13
aI15
aI15
aI14
aI12
aI16
aI18
aI14
aI16
aI13
aI18
aI17
aI18
aI15
aa(lp512
I4
aI2
aI6
aI5
aI9
aI5
aI11
aI14
aI15
aI12
aI11
aI12
aI15
aI15
aI15
aI13
aI17
aI16
aI17
aI18
aa(lp513
I5
aI4
aI10
aI11
aI11
aI12
aI12
aI10
aI11
aI15
aI14
aI10
aI13
aI13
aI17
aI15
aI14
aI14
aI15
aI17
aa(lp514
I4
aI9
aI12
aI7
aI7
aI9
aI11
aI11
aI15
aI13
aI16
aI16
aI14
aI13
aI17
aI16
aI13
aI17
aI13
aI17
aa(lp515
I4
aI5
aI9
aI9
aI9
aI7
aI11
aI10
aI10
aI8
aI7
aI9
aI11
aI12
aI17
aI17
aI15
aI13
aI18
aI14
aa(lp516
I6
aI4
aI3
aI9
aI6
aI7
aI12
aI13
aI16
aI18
aI14
aI18
aI14
aI15
aI15
aI13
aI18
aI17
aI15
aI16
aa(lp517
I4
aI9
aI6
aI6
aI10
aI15
aI12
aI10
aI10
aI14
aI18
aI18
aI17
aI18
aI16
aI16
aI16
aI13
aI15
aI14
aa(lp518
I4
aI4
aI6
aI9
aI11
aI9
aI8
aI13
aI17
aI17
aI14
aI15
aI17
aI13
aI14
aI18
aI18
aI18
aI15
aI14
aa(lp519
I6
aI8
aI7
aI9
aI11
aI12
aI9
aI7
aI8
aI8
aI11
aI11
aI15
aI15
aI13
aI14
aI10
aI10
aI14
aI10
aa(lp520
I2
aI8
aI4
aI7
aI7
aI9
aI12
aI10
aI12
aI15
aI14
aI14
aI13
aI12
aI18
aI18
aI17
aI15
aI13
aI15
aa(lp521
I2
aI5
aI9
aI10
aI10
aI11
aI14
aI10
aI14
aI12
aI17
aI18
aI18
aI17
aI14
aI15
aI15
aI15
aI13
aI18
aa(lp522
I2
aI7
aI7
aI9
aI15
aI18
aI18
aI14
aI16
aI18
aI18
aI15
aI13
aI17
aI15
aI15
aI17
aI18
aI15
aI17
aa(lp523
I1
aI5
aI4
aI11
aI9
aI15
aI13
aI10
aI15
aI14
aI11
aI17
aI16
aI13
aI13
aI13
aI18
aI15
aI17
aI17
aa(lp524
I5
aI5
aI6
aI8
aI4
aI8
aI6
aI7
aI7
aI9
aI7
aI12
aI7
aI10
aI11
aI9
aI11
aI9
aI10
aI9
aa(lp525
I6
aI1
aI3
aI7
aI12
aI12
aI11
aI18
aI18
aI13
aI13
aI16
aI17
aI13
aI15
aI18
aI18
aI15
aI17
aI16
aa(lp526
I3
aI5
aI5
aI4
aI9
aI10
aI8
aI9
aI11
aI13
aI18
aI17
aI18
aI18
aI13
aI18
aI16
aI16
aI13
aI17
aa(lp527
I1
aI4
aI6
aI1
aI3
aI5
aI7
aI10
aI14
aI13
aI13
aI13
aI12
aI10
aI15
aI13
aI15
aI18
aI13
aI16
aa(lp528
I1
aI3
aI2
aI5
aI7
aI4
aI6
aI9
aI4
aI8
aI9
aI13
aI15
aI14
aI17
aI17
aI17
aI14
aI16
aI16
aa(lp529
I2
aI1
aI9
aI5
aI6
aI9
aI11
aI10
aI10
aI12
aI11
aI11
aI18
aI13
aI15
aI16
aI15
aI15
aI13
aI15
aa(lp530
I5
aI1
aI4
aI7
aI5
aI4
aI12
aI10
aI7
aI12
aI14
aI15
aI12
aI15
aI15
aI10
aI13
aI10
aI13
aI15
aa(lp531
I6
aI4
aI9
aI8
aI9
aI8
aI9
aI9
aI11
aI7
aI10
aI8
aI10
aI12
aI10
aI10
aI12
aI13
aI15
aI14
aa(lp532
I3
aI7
aI11
aI7
aI12
aI7
aI8
aI10
aI10
aI11
aI11
aI10
aI14
aI18
aI14
aI18
aI13
aI15
aI13
aI17
aa(lp533
I4
aI4
aI3
aI1
aI4
aI6
aI10
aI11
aI11
aI14
aI10
aI10
aI12
aI12
aI14
aI14
aI17
aI14
aI14
aI13
aa(lp534
I3
aI6
aI7
aI11
aI10
aI7
aI10
aI14
aI14
aI10
aI12
aI17
aI17
aI16
aI16
aI13
aI16
aI16
aI16
aI14
aa(lp535
I6
aI6
aI4
aI5
aI6
aI5
aI8
aI10
aI10
aI12
aI12
aI7
aI10
aI11
aI12
aI8
aI11
aI10
aI8
aI11
aa(lp536
I1
aI8
aI6
aI4
aI10
aI7
aI10
aI8
aI7
aI12
aI12
aI9
aI7
aI7
aI11
aI11
aI11
aI9
aI15
aI11
aa(lp537
I1
aI3
aI5
aI5
aI4
aI4
aI7
aI8
aI8
aI9
aI9
aI4
aI8
aI10
aI13
aI11
aI15
aI13
aI10
aI13
aa(lp538
I1
aI3
aI4
aI7
aI12
aI8
aI7
aI7
aI8
aI11
aI9
aI8
aI12
aI12
aI11
aI15
aI10
aI14
aI15
aI11
aa(lp539
I2
aI2
aI7
aI8
aI10
aI14
aI12
aI13
aI14
aI14
aI16
aI15
aI13
aI16
aI16
aI15
aI13
aI18
aI13
aI17
aa(lp540
I5
aI5
aI4
aI9
aI9
aI12
aI8
aI10
aI12
aI8
aI10
aI10
aI13
aI14
aI14
aI14
aI16
aI17
aI13
aI15
aa(lp541
I5
aI8
aI12
aI9
aI10
aI10
aI14
aI16
aI14
aI15
aI17
aI16
aI17
aI13
aI16
aI17
aI15
aI18
aI16
aI18
aa(lp542
I4
aI2
aI9
aI4
aI8
aI10
aI7
aI8
aI14
aI10
aI11
aI11
aI10
aI18
aI16
aI13
aI17
aI16
aI17
aI17
aa(lp543
I3
aI5
aI8
aI7
aI7
aI5
aI7
aI8
aI12
aI8
aI8
aI15
aI13
aI14
aI12
aI10
aI16
aI13
aI14
aI14
aa(lp544
I6
aI5
aI11
aI12
aI10
aI10
aI14
aI15
aI14
aI18
aI15
aI15
aI17
aI18
aI18
aI14
aI16
aI17
aI17
aI17
aa(lp545
I6
aI7
aI8
aI7
aI11
aI8
aI7
aI8
aI8
aI8
aI11
aI13
aI17
aI15
aI18
aI13
aI15
aI17
aI18
aI15
aa(lp546
I3
aI9
aI4
aI8
aI12
aI10
aI13
aI11
aI11
aI11
aI10
aI13
aI12
aI13
aI13
aI14
aI14
aI14
aI16
aI17
aa(lp547
I3
aI6
aI1
aI5
aI5
aI8
aI14
aI14
aI10
aI11
aI11
aI13
aI15
aI10
aI13
aI10
aI13
aI17
aI17
aI14
aa(lp548
I4
aI7
aI8
aI8
aI10
aI7
aI11
aI11
aI9
aI12
aI8
aI8
aI8
aI9
aI11
aI11
aI10
aI11
aI18
aI15
aa(lp549
I6
aI4
aI1
aI7
aI9
aI10
aI15
aI14
aI17
aI15
aI14
aI15
aI13
aI14
aI18
aI16
aI16
aI16
aI15
aI15
aa(lp550
I5
aI3
aI9
aI7
aI8
aI11
aI13
aI13
aI13
aI11
aI15
aI10
aI15
aI10
aI15
aI11
aI10
aI13
aI17
aI14
aa(lp551
I3
aI3
aI5
aI1
aI6
aI8
aI14
aI12
aI15
aI12
aI17
aI15
aI17
aI17
aI16
aI15
aI17
aI17
aI13
aI17
aa(lp552
I6
aI4
aI3
aI6
aI3
aI3
aI9
aI7
aI7
aI11
aI7
aI12
aI9
aI12
aI7
aI10
aI10
aI11
aI13
aI11
aa(lp553
I5
aI7
aI9
aI6
aI8
aI7
aI6
aI5
aI8
aI9
aI4
aI4
aI7
aI6
aI7
aI4
aI7
aI7
aI10
aI13
aa(lp554
I1
aI5
aI6
aI4
aI7
aI11
aI9
aI8
aI8
aI7
aI11
aI12
aI10
aI12
aI11
aI13
aI11
aI15
aI15
aI11
aa(lp555
I4
aI6
aI2
aI1
aI1
aI1
aI8
aI7
aI11
aI8
aI12
aI11
aI8
aI13
aI10
aI11
aI10
aI14
aI16
aI13
aa(lp556
I3
aI8
aI4
aI9
aI10
aI14
aI13
aI12
aI15
aI15
aI17
aI17
aI16
aI18
aI18
aI14
aI18
aI13
aI16
aI15
aa(lp557
I5
aI2
aI9
aI7
aI10
aI13
aI13
aI14
aI18
aI16
aI18
aI18
aI17
aI16
aI15
aI17
aI17
aI15
aI16
aI18
aa(lp558
I4
aI2
aI5
aI1
aI8
aI12
aI7
aI7
aI12
aI9
aI8
aI9
aI8
aI9
aI7
aI12
aI11
aI10
aI14
aI14
aa(lp559
I5
aI8
aI5
aI9
aI7
aI9
aI8
aI12
aI11
aI10
aI11
aI12
aI14
aI15
aI12
aI12
aI13
aI18
aI14
aI14
aa(lp560
I6
aI1
aI4
aI11
aI7
aI8
aI8
aI7
aI10
aI14
aI12
aI11
aI14
aI17
aI14
aI16
aI18
aI16
aI14
aI13
aa(lp561
I6
aI2
aI4
aI5
aI8
aI8
aI9
aI11
aI15
aI14
aI10
aI13
aI13
aI12
aI11
aI13
aI13
aI10
aI12
aI13
aa(lp562
I2
aI9
aI4
aI7
aI7
aI6
aI9
aI11
aI13
aI10
aI12
aI10
aI12
aI13
aI12
aI13
aI17
aI13
aI14
aI18
aa(lp563
I4
aI7
aI9
aI8
aI7
aI7
aI11
aI7
aI11
aI7
aI10
aI15
aI15
aI11
aI18
aI13
aI16
aI13
aI17
aI13
aa(lp564
I2
aI3
aI5
aI11
aI10
aI11
aI15
aI13
aI11
aI15
aI17
aI15
aI15
aI18
aI14
aI16
aI17
aI15
aI15
aI14
aa(lp565
I2
aI3
aI4
aI5
aI7
aI8
aI11
aI9
aI12
aI9
aI8
aI11
aI9
aI8
aI11
aI13
aI11
aI13
aI12
aI10
aa(lp566
I4
aI5
aI12
aI12
aI8
aI12
aI12
aI8
aI11
aI10
aI11
aI7
aI12
aI8
aI14
aI12
aI14
aI11
aI15
aI13
aa(lp567
I6
aI6
aI7
aI9
aI7
aI7
aI7
aI10
aI7
aI7
aI15
aI16
aI15
aI17
aI15
aI15
aI15
aI16
aI15
aI14
aa(lp568
I1
aI3
aI3
aI4
aI7
aI11
aI12
aI17
aI18
aI13
aI17
aI15
aI17
aI18
aI17
aI16
aI16
aI13
aI15
aI14
aa(lp569
I5
aI8
aI6
aI4
aI9
aI10
aI7
aI7
aI10
aI12
aI12
aI11
aI11
aI14
aI17
aI14
aI14
aI15
aI16
aI17
aa(lp570
I5
aI5
aI9
aI9
aI11
aI11
aI11
aI10
aI13
aI18
aI16
aI17
aI17
aI16
aI17
aI13
aI15
aI15
aI14
aI13
aa(lp571
I4
aI5
aI5
aI10
aI12
aI10
aI12
aI14
aI10
aI14
aI15
aI17
aI16
aI15
aI14
aI16
aI14
aI14
aI15
aI13
aa(lp572
I1
aI4
aI11
aI8
aI8
aI9
aI10
aI7
aI11
aI14
aI13
aI17
aI14
aI15
aI18
aI13
aI17
aI18
aI17
aI18
aa(lp573
I3
aI4
aI11
aI9
aI7
aI9
aI14
aI10
aI10
aI10
aI14
aI13
aI17
aI18
aI15
aI17
aI17
aI15
aI17
aI13
aa(lp574
I1
aI5
aI11
aI10
aI15
aI13
aI13
aI15
aI11
aI14
aI16
aI17
aI15
aI14
aI16
aI16
aI17
aI14
aI15
aI13
aa(lp575
I2
aI5
aI7
aI13
aI11
aI11
aI10
aI13
aI11
aI10
aI13
aI10
aI12
aI17
aI15
aI16
aI13
aI16
aI15
aI17
aa(lp576
I6
aI4
aI4
aI2
aI9
aI9
aI8
aI13
aI15
aI14
aI15
aI13
aI12
aI10
aI12
aI14
aI17
aI13
aI15
aI17
aa(lp577
I6
aI7
aI7
aI12
aI10
aI10
aI12
aI11
aI12
aI10
aI18
aI14
aI16
aI13
aI18
aI18
aI16
aI18
aI17
aI14
aa(lp578
I3
aI6
aI5
aI7
aI11
aI9
aI12
aI13
aI15
aI14
aI13
aI16
aI14
aI15
aI16
aI14
aI16
aI18
aI18
aI14
aa(lp579
I2
aI9
aI5
aI9
aI7
aI11
aI13
aI12
aI17
aI14
aI14
aI14
aI13
aI14
aI17
aI16
aI17
aI16
aI18
aI16
aa(lp580
I2
aI3
aI1
aI5
aI6
aI7
aI12
aI9
aI9
aI10
aI10
aI10
aI16
aI15
aI17
aI18
aI13
aI13
aI16
aI14
aa(lp581
I1
aI7
aI10
aI11
aI12
aI10
aI12
aI12
aI14
aI13
aI12
aI10
aI12
aI15
aI13
aI15
aI16
aI14
aI17
aI13
aa(lp582
I2
aI8
aI7
aI11
aI15
aI11
aI12
aI11
aI12
aI11
aI15
aI17
aI16
aI13
aI18
aI17
aI17
aI13
aI18
aI18
aa(lp583
I2
aI4
aI2
aI7
aI9
aI8
aI9
aI9
aI9
aI8
aI8
aI11
aI9
aI11
aI12
aI13
aI10
aI11
aI18
aI16
aa(lp584
I6
aI5
aI7
aI11
aI13
aI10
aI11
aI13
aI11
aI13
aI10
aI10
aI15
aI11
aI10
aI10
aI13
aI15
aI13
aI15
aa(lp585
I1
aI4
aI5
aI11
aI7
aI7
aI9
aI9
aI8
aI8
aI10
aI13
aI15
aI11
aI15
aI15
aI15
aI12
aI10
aI14
aa(lp586
I1
aI4
aI6
aI1
aI2
aI4
aI3
aI6
aI4
aI3
aI6
aI7
aI8
aI8
aI7
aI14
aI17
aI18
aI13
aI14
aa(lp587
I6
aI1
aI1
aI8
aI9
aI9
aI10
aI12
aI13
aI13
aI14
aI17
aI15
aI16
aI14
aI16
aI18
aI15
aI13
aI17
aa(lp588
I6
aI7
aI5
aI4
aI5
aI6
aI11
aI10
aI7
aI7
aI12
aI12
aI12
aI10
aI11
aI13
aI14
aI14
aI14
aI15
aa(lp589
I3
aI6
aI6
aI7
aI8
aI10
aI9
aI10
aI18
aI13
aI13
aI16
aI16
aI15
aI16
aI13
aI17
aI15
aI16
aI14
aa(lp590
I6
aI4
aI6
aI9
aI6
aI5
aI6
aI9
aI7
aI8
aI10
aI7
aI14
aI14
aI13
aI13
aI11
aI11
aI16
aI14
aa(lp591
I2
aI9
aI8
aI12
aI10
aI7
aI10
aI18
aI17
aI13
aI13
aI13
aI15
aI17
aI15
aI17
aI14
aI15
aI17
aI18
aa(lp592
I3
aI3
aI6
aI5
aI3
aI9
aI9
aI4
aI8
aI10
aI11
aI8
aI9
aI12
aI7
aI11
aI7
aI10
aI10
aI9
aa(lp593
I2
aI8
aI9
aI12
aI7
aI9
aI14
aI15
aI15
aI13
aI12
aI11
aI13
aI13
aI18
aI18
aI15
aI14
aI16
aI17
aa(lp594
I4
aI1
aI4
aI6
aI9
aI11
aI9
aI10
aI11
aI13
aI16
aI16
aI15
aI14
aI13
aI13
aI18
aI18
aI14
aI13
aa(lp595
I3
aI3
aI6
aI11
aI13
aI13
aI15
aI16
aI17
aI16
aI15
aI15
aI17
aI14
aI16
aI18
aI16
aI13
aI18
aI14
aa(lp596
I3
aI3
aI9
aI9
aI8
aI11
aI10
aI15
aI12
aI15
aI10
aI13
aI16
aI17
aI14
aI14
aI13
aI15
aI14
aI15
aa(lp597
I1
aI5
aI3
aI4
aI6
aI5
aI10
aI10
aI15
aI15
aI16
aI16
aI14
aI18
aI14
aI18
aI13
aI17
aI15
aI14
aa(lp598
I1
aI2
aI4
aI8
aI7
aI6
aI4
aI4
aI7
aI8
aI11
aI10
aI11
aI11
aI7
aI10
aI14
aI12
aI15
aI10
aa(lp599
I2
aI7
aI5
aI7
aI12
aI15
aI12
aI18
aI18
aI16
aI15
aI16
aI14
aI18
aI17
aI18
aI14
aI13
aI15
aI17
aa(lp600
I4
aI2
aI5
aI6
aI6
aI6
aI9
aI9
aI8
aI8
aI5
aI11
aI13
aI13
aI10
aI11
aI10
aI15
aI13
aI12
aa(lp601
I6
aI4
aI10
aI8
aI13
aI13
aI10
aI10
aI13
aI12
aI12
aI12
aI11
aI11
aI11
aI14
aI12
aI12
aI11
aI12
aa(lp602
I3
aI5
aI7
aI8
aI11
aI11
aI8
aI12
aI10
aI11
aI11
aI12
aI14
aI10
aI11
aI14
aI17
aI13
aI15
aI18
aa(lp603
I2
aI4
aI8
aI5
aI8
aI11
aI10
aI10
aI15
aI13
aI18
aI18
aI17
aI13
aI15
aI17
aI16
aI18
aI18
aI14
aa(lp604
I5
aI1
aI4
aI4
aI9
aI12
aI8
aI11
aI11
aI7
aI8
aI8
aI9
aI9
aI11
aI8
aI7
aI7
aI10
aI11
aa(lp605
I3
aI1
aI5
aI5
aI7
aI9
aI6
aI7
aI13
aI16
aI17
aI17
aI15
aI14
aI16
aI18
aI14
aI18
aI17
aI16
aa(lp606
I4
aI6
aI6
aI3
aI5
aI6
aI4
aI10
aI13
aI14
aI15
aI13
aI14
aI17
aI16
aI13
aI17
aI15
aI16
aI17
aa(lp607
I4
aI6
aI4
aI7
aI8
aI10
aI8
aI9
aI11
aI15
aI11
aI11
aI13
aI13
aI14
aI14
aI18
aI17
aI17
aI15
aa(lp608
I4
aI5
aI2
aI2
aI3
aI6
aI8
aI9
aI8
aI12
aI10
aI10
aI14
aI16
aI16
aI18
aI18
aI15
aI15
aI14
aa(lp609
I1
aI6
aI5
aI7
aI9
aI9
aI9
aI10
aI12
aI12
aI14
aI13
aI10
aI15
aI12
aI15
aI13
aI10
aI11
aI12
aa(lp610
I2
aI5
aI8
aI4
aI5
aI6
aI11
aI12
aI12
aI14
aI11
aI16
aI15
aI18
aI15
aI18
aI15
aI15
aI15
aI16
aa(lp611
I5
aI5
aI8
aI10
aI8
aI10
aI10
aI16
aI13
aI18
aI17
aI17
aI15
aI14
aI16
aI16
aI14
aI13
aI15
aI16
aa(lp612
I2
aI2
aI5
aI7
aI12
aI11
aI10
aI11
aI9
aI10
aI12
aI14
aI17
aI13
aI17
aI16
aI14
aI18
aI17
aI18
aa(lp613
I3
aI6
aI7
aI5
aI11
aI13
aI12
aI13
aI13
aI15
aI13
aI17
aI15
aI16
aI16
aI16
aI18
aI16
aI15
aI17
aa(lp614
I2
aI2
aI4
aI8
aI6
aI9
aI12
aI13
aI11
aI10
aI15
aI15
aI11
aI10
aI15
aI15
aI13
aI17
aI15
aI17
aa(lp615
I5
aI6
aI5
aI6
aI6
aI10
aI11
aI7
aI8
aI9
aI7
aI11
aI12
aI10
aI12
aI10
aI13
aI15
aI17
aI15
aa(lp616
I5
aI5
aI6
aI5
aI3
aI4
aI6
aI8
aI5
aI4
aI10
aI8
aI11
aI9
aI9
aI12
aI13
aI15
aI18
aI16
aa(lp617
I4
aI6
aI12
aI11
aI9
aI13
aI10
aI10
aI13
aI12
aI14
aI13
aI13
aI12
aI12
aI14
aI18
aI16
aI16
aI15
aa(lp618
I1
aI4
aI6
aI5
aI5
aI8
aI9
aI10
aI12
aI10
aI13
aI14
aI14
aI15
aI16
aI14
aI15
aI15
aI14
aI18
aa(lp619
I2
aI5
aI11
aI8
aI9
aI8
aI12
aI12
aI10
aI10
aI11
aI14
aI15
aI13
aI15
aI16
aI15
aI13
aI15
aI17
aa(lp620
I3
aI5
aI5
aI9
aI4
aI6
aI4
aI12
aI8
aI9
aI11
aI12
aI11
aI10
aI14
aI14
aI14
aI13
aI17
aI16
aa(lp621
I1
aI8
aI8
aI10
aI12
aI15
aI13
aI14
aI17
aI17
aI15
aI17
aI13
aI13
aI15
aI14
aI17
aI17
aI15
aI18
aa(lp622
I3
aI5
aI3
aI6
aI6
aI8
aI8
aI9
aI8
aI8
aI8
aI8
aI13
aI13
aI13
aI12
aI16
aI15
aI17
aI18
aa(lp623
I2
aI7
aI10
aI8
aI8
aI15
aI10
aI13
aI16
aI15
aI16
aI13
aI18
aI16
aI16
aI16
aI16
aI16
aI16
aI17
aa(lp624
I4
aI1
aI6
aI5
aI12
aI15
aI13
aI18
aI18
aI17
aI15
aI18
aI17
aI15
aI18
aI15
aI14
aI18
aI15
aI18
aa(lp625
I3
aI4
aI12
aI7
aI12
aI12
aI12
aI10
aI14
aI13
aI10
aI14
aI11
aI11
aI12
aI10
aI10
aI12
aI11
aI15
aa(lp626
I3
aI5
aI4
aI4
aI9
aI6
aI9
aI10
aI14
aI15
aI17
aI13
aI18
aI17
aI13
aI18
aI13
aI13
aI18
aI13
aa(lp627
I4
aI4
aI7
aI11
aI8
aI10
aI10
aI11
aI8
aI8
aI10
aI14
aI14
aI17
aI13
aI16
aI15
aI17
aI13
aI13
aa(lp628
I4
aI6
aI12
aI11
aI10
aI13
aI13
aI10
aI10
aI13
aI13
aI10
aI11
aI13
aI14
aI13
aI10
aI15
aI18
aI17
aa(lp629
I2
aI4
aI4
aI8
aI10
aI10
aI8
aI11
aI10
aI12
aI14
aI14
aI14
aI16
aI13
aI15
aI14
aI13
aI15
aI15
aa(lp630
I5
aI5
aI9
aI9
aI7
aI10
aI10
aI8
aI10
aI9
aI10
aI12
aI8
aI11
aI11
aI11
aI15
aI12
aI11
aI12
aa(lp631
I2
aI6
aI2
aI4
aI10
aI15
aI15
aI16
aI15
aI14
aI15
aI16
aI14
aI18
aI13
aI16
aI17
aI16
aI16
aI17
aa(lp632
I1
aI4
aI10
aI12
aI7
aI8
aI9
aI9
aI12
aI7
aI12
aI9
aI7
aI10
aI7
aI10
aI12
aI7
aI13
aI15
aa(lp633
I1
aI1
aI9
aI4
aI4
aI8
aI8
aI10
aI8
aI13
aI15
aI11
aI15
aI18
aI18
aI15
aI14
aI15
aI13
aI16
aa(lp634
I2
aI6
aI8
aI6
aI6
aI5
aI9
aI10
aI13
aI13
aI16
aI15
aI14
aI17
aI13
aI17
aI13
aI16
aI16
aI15
aa(lp635
I6
aI6
aI5
aI5
aI11
aI9
aI8
aI12
aI12
aI10
aI10
aI7
aI12
aI8
aI8
aI11
aI9
aI7
aI9
aI15
aa(lp636
I4
aI1
aI1
aI2
aI4
aI7
aI8
aI10
aI12
aI15
aI14
aI16
aI17
aI13
aI14
aI17
aI18
aI14
aI15
aI16
aa(lp637
I4
aI4
aI4
aI10
aI11
aI13
aI12
aI12
aI11
aI18
aI14
aI14
aI16
aI13
aI16
aI14
aI13
aI17
aI13
aI18
aa(lp638
I5
aI4
aI10
aI11
aI8
aI11
aI8
aI14
aI13
aI14
aI13
aI13
aI13
aI13
aI17
aI17
aI17
aI14
aI15
aI18
aa(lp639
I4
aI5
aI8
aI8
aI4
aI8
aI8
aI8
aI10
aI11
aI14
aI14
aI14
aI17
aI15
aI16
aI15
aI16
aI14
aI14
aa(lp640
I6
aI4
aI9
aI7
aI12
aI9
aI11
aI10
aI9
aI15
aI16
aI14
aI17
aI14
aI18
aI13
aI18
aI13
aI16
aI15
aa(lp641
I5
aI7
aI4
aI4
aI8
aI8
aI10
aI11
aI9
aI11
aI10
aI14
aI15
aI18
aI16
aI16
aI14
aI13
aI18
aI14
aa(lp642
I1
aI9
aI9
aI11
aI12
aI10
aI14
aI17
aI13
aI14
aI13
aI18
aI16
aI13
aI14
aI15
aI13
aI14
aI15
aI14
aa(lp643
I3
aI8
aI10
aI11
aI12
aI8
aI11
aI10
aI8
aI13
aI15
aI17
aI18
aI13
aI15
aI16
aI15
aI13
aI15
aI14
aa(lp644
I4
aI6
aI5
aI9
aI8
aI4
aI9
aI7
aI7
aI4
aI8
aI11
aI14
aI15
aI13
aI10
aI13
aI13
aI14
aI10
aa(lp645
I3
aI7
aI11
aI11
aI10
aI10
aI13
aI16
aI17
aI16
aI13
aI13
aI15
aI17
aI18
aI16
aI16
aI16
aI14
aI17
aa(lp646
I5
aI5
aI6
aI10
aI11
aI14
aI10
aI13
aI15
aI16
aI18
aI14
aI13
aI16
aI18
aI17
aI14
aI17
aI16
aI17
aa(lp647
I6
aI2
aI8
aI9
aI7
aI12
aI10
aI13
aI14
aI14
aI16
aI17
aI16
aI17
aI17
aI16
aI16
aI18
aI14
aI13
aa(lp648
I1
aI5
aI2
aI3
aI9
aI12
aI12
aI12
aI11
aI15
aI13
aI17
aI15
aI18
aI17
aI17
aI16
aI16
aI13
aI14
aa(lp649
I6
aI9
aI12
aI8
aI13
aI10
aI14
aI17
aI18
aI17
aI16
aI18
aI16
aI15
aI17
aI18
aI18
aI14
aI17
aI17
aa(lp650
I6
aI8
aI8
aI7
aI8
aI13
aI13
aI15
aI12
aI12
aI18
aI15
aI13
aI18
aI17
aI17
aI17
aI14
aI16
aI17
aa(lp651
I6
aI8
aI4
aI10
aI12
aI12
aI13
aI14
aI11
aI15
aI13
aI14
aI13
aI12
aI15
aI15
aI12
aI15
aI17
aI15
aa(lp652
I6
aI5
aI10
aI10
aI10
aI11
aI10
aI8
aI10
aI13
aI17
aI14
aI15
aI13
aI16
aI14
aI15
aI18
aI17
aI14
aa(lp653
I4
aI6
aI2
aI5
aI5
aI8
aI7
aI7
aI11
aI15
aI11
aI11
aI13
aI13
aI17
aI14
aI17
aI14
aI16
aI15
aa(lp654
I2
aI6
aI9
aI10
aI12
aI13
aI11
aI17
aI18
aI13
aI14
aI16
aI17
aI15
aI16
aI18
aI14
aI17
aI14
aI14
aa(lp655
I1
aI4
aI5
aI9
aI4
aI6
aI8
aI14
aI14
aI11
aI14
aI12
aI12
aI14
aI17
aI14
aI14
aI17
aI16
aI18
aa(lp656
I5
aI9
aI4
aI4
aI4
aI6
aI4
aI8
aI12
aI7
aI9
aI10
aI8
aI10
aI12
aI10
aI14
aI18
aI18
aI18
aa(lp657
I3
aI6
aI5
aI9
aI7
aI12
aI9
aI7
aI11
aI8
aI12
aI10
aI10
aI10
aI11
aI13
aI12
aI17
aI13
aI14
aa(lp658
I6
aI6
aI9
aI12
aI16
aI17
aI18
aI15
aI15
aI14
aI14
aI15
aI16
aI14
aI15
aI16
aI13
aI15
aI14
aI16
aa(lp659
I4
aI5
aI8
aI7
aI4
aI5
aI9
aI10
aI10
aI11
aI13
aI10
aI14
aI11
aI11
aI14
aI15
aI16
aI13
aI18
aa(lp660
I2
aI6
aI8
aI5
aI11
aI11
aI8
aI11
aI10
aI14
aI11
aI13
aI12
aI15
aI10
aI12
aI18
aI18
aI14
aI14
aa(lp661
I6
aI8
aI7
aI8
aI10
aI11
aI15
aI15
aI12
aI13
aI18
aI17
aI18
aI16
aI16
aI13
aI15
aI17
aI13
aI14
aa(lp662
I3
aI7
aI6
aI6
aI8
aI5
aI7
aI10
aI10
aI13
aI14
aI14
aI14
aI13
aI16
aI15
aI13
aI13
aI14
aI18
aa(lp663
I1
aI4
aI2
aI4
aI10
aI10
aI15
aI13
aI16
aI13
aI18
aI17
aI14
aI15
aI18
aI16
aI17
aI16
aI14
aI13
aa(lp664
I2
aI5
aI2
aI2
aI4
aI5
aI5
aI5
aI12
aI8
aI9
aI7
aI12
aI12
aI7
aI9
aI15
aI10
aI15
aI13
aa(lp665
I1
aI8
aI5
aI6
aI9
aI7
aI12
aI10
aI11
aI18
aI16
aI13
aI14
aI16
aI13
aI14
aI15
aI16
aI15
aI15
aa(lp666
I2
aI3
aI6
aI5
aI6
aI7
aI11
aI12
aI8
aI12
aI7
aI10
aI11
aI9
aI14
aI16
aI16
aI13
aI14
aI16
aa(lp667
I6
aI5
aI7
aI10
aI7
aI12
aI7
aI10
aI11
aI14
aI14
aI15
aI16
aI14
aI17
aI18
aI18
aI16
aI14
aI14
aa(lp668
I6
aI3
aI4
aI9
aI12
aI8
aI12
aI8
aI9
aI8
aI10
aI14
aI10
aI13
aI16
aI13
aI17
aI17
aI18
aI13
aa(lp669
I3
aI5
aI9
aI7
aI7
aI15
aI12
aI11
aI15
aI16
aI16
aI18
aI15
aI14
aI18
aI15
aI17
aI14
aI15
aI13
aa(lp670
I5
aI1
aI6
aI9
aI4
aI8
aI4
aI4
aI4
aI9
aI9
aI12
aI15
aI14
aI17
aI15
aI14
aI16
aI16
aI18
aa(lp671
I1
aI1
aI4
aI9
aI7
aI12
aI10
aI11
aI12
aI10
aI13
aI13
aI11
aI12
aI15
aI15
aI12
aI15
aI10
aI12
aa(lp672
I6
aI8
aI10
aI7
aI10
aI15
aI12
aI14
aI13
aI17
aI15
aI16
aI14
aI15
aI14
aI18
aI17
aI14
aI17
aI15
aa(lp673
I2
aI7
aI8
aI11
aI13
aI12
aI10
aI10
aI11
aI13
aI18
aI17
aI18
aI15
aI15
aI14
aI13
aI13
aI13
aI18
aa(lp674
I1
aI9
aI11
aI9
aI13
aI12
aI13
aI11
aI13
aI10
aI10
aI13
aI17
aI18
aI15
aI17
aI13
aI15
aI15
aI17
aa(lp675
I6
aI4
aI3
aI5
aI3
aI4
aI5
aI6
aI9
aI7
aI4
aI7
aI4
aI12
aI10
aI10
aI10
aI14
aI10
aI15
aa(lp676
I3
aI5
aI8
aI7
aI7
aI6
aI4
aI8
aI9
aI11
aI11
aI9
aI11
aI11
aI15
aI10
aI12
aI14
aI15
aI16
aa(lp677
I5
aI9
aI7
aI5
aI11
aI11
aI9
aI10
aI11
aI8
aI12
aI15
aI13
aI15
aI10
aI10
aI14
aI10
aI15
aI10
aa(lp678
I3
aI1
aI5
aI5
aI8
aI9
aI8
aI7
aI8
aI7
aI4
aI7
aI8
aI7
aI8
aI12
aI15
aI11
aI11
aI14
aa(lp679
I5
aI9
aI6
aI9
aI6
aI5
aI9
aI7
aI8
aI4
aI7
aI12
aI14
aI12
aI14
aI14
aI11
aI16
aI17
aI13
aa(lp680
I3
aI7
aI7
aI8
aI8
aI8
aI8
aI7
aI11
aI11
aI12
aI8
aI11
aI14
aI12
aI15
aI17
aI17
aI15
aI13
aa(lp681
I6
aI2
aI5
aI4
aI4
aI7
aI8
aI11
aI11
aI13
aI14
aI11
aI14
aI18
aI17
aI13
aI15
aI16
aI14
aI18
aa(lp682
I6
aI7
aI10
aI10
aI12
aI15
aI10
aI13
aI17
aI17
aI15
aI18
aI18
aI18
aI18
aI17
aI17
aI15
aI15
aI13
aa(lp683
I4
aI4
aI8
aI12
aI10
aI15
aI10
aI13
aI10
aI16
aI14
aI15
aI13
aI13
aI18
aI14
aI18
aI18
aI17
aI15
aa(lp684
I6
aI4
aI9
aI5
aI6
aI7
aI9
aI9
aI9
aI12
aI10
aI7
aI12
aI10
aI13
aI11
aI15
aI16
aI13
aI14
aa(lp685
I5
aI9
aI8
aI9
aI4
aI7
aI11
aI12
aI15
aI10
aI13
aI18
aI13
aI18
aI14
aI13
aI16
aI14
aI15
aI14
aa(lp686
I2
aI5
aI9
aI11
aI14
aI12
aI11
aI14
aI14
aI13
aI14
aI18
aI17
aI16
aI16
aI18
aI16
aI14
aI15
aI15
aa(lp687
I2
aI5
aI4
aI9
aI11
aI7
aI10
aI14
aI14
aI13
aI14
aI15
aI17
aI17
aI18
aI13
aI13
aI17
aI18
aI15
aa(lp688
I4
aI4
aI7
aI6
aI7
aI9
aI11
aI12
aI7
aI12
aI15
aI18
aI16
aI15
aI13
aI14
aI14
aI13
aI18
aI16
aa(lp689
I1
aI3
aI7
aI7
aI15
aI14
aI14
aI14
aI18
aI16
aI15
aI15
aI16
aI18
aI13
aI13
aI16
aI18
aI17
aI15
aa(lp690
I3
aI5
aI2
aI5
aI2
aI4
aI9
aI12
aI12
aI13
aI13
aI14
aI13
aI15
aI16
aI15
aI15
aI16
aI16
aI15
aa(lp691
I6
aI7
aI5
aI5
aI7
aI10
aI9
aI12
aI12
aI13
aI17
aI16
aI13
aI17
aI13
aI14
aI14
aI15
aI14
aI14
aa(lp692
I2
aI3
aI9
aI7
aI7
aI14
aI11
aI11
aI10
aI14
aI11
aI18
aI13
aI18
aI13
aI16
aI18
aI15
aI18
aI13
aa(lp693
I3
aI3
aI1
aI5
aI4
aI5
aI8
aI9
aI9
aI12
aI7
aI11
aI13
aI15
aI13
aI14
aI18
aI14
aI15
aI17
aa(lp694
I6
aI3
aI4
aI12
aI9
aI10
aI7
aI7
aI8
aI10
aI11
aI10
aI13
aI13
aI13
aI13
aI14
aI15
aI16
aI13
aa(lp695
I4
aI6
aI7
aI7
aI9
aI4
aI7
aI5
aI7
aI8
aI13
aI12
aI10
aI12
aI15
aI10
aI14
aI13
aI10
aI13
aa(lp696
I3
aI6
aI6
aI8
aI11
aI11
aI8
aI9
aI11
aI15
aI10
aI13
aI10
aI13
aI10
aI15
aI17
aI17
aI17
aI14
aa(lp697
I1
aI8
aI7
aI7
aI12
aI10
aI13
aI15
aI10
aI12
aI14
aI15
aI13
aI13
aI14
aI16
aI18
aI15
aI15
aI17
aa(lp698
I1
aI5
aI10
aI9
aI13
aI10
aI11
aI14
aI13
aI16
aI17
aI16
aI16
aI18
aI18
aI13
aI17
aI16
aI14
aI13
aa(lp699
I2
aI9
aI5
aI8
aI10
aI11
aI14
aI10
aI11
aI10
aI14
aI11
aI15
aI13
aI14
aI11
aI12
aI11
aI16
aI13
aa(lp700
I3
aI6
aI7
aI7
aI8
aI7
aI10
aI8
aI8
aI8
aI12
aI12
aI11
aI11
aI12
aI7
aI9
aI8
aI9
aI10
aa(lp701
I5
aI3
aI6
aI1
aI8
aI11
aI9
aI8
aI15
aI13
aI13
aI14
aI13
aI10
aI17
aI14
aI16
aI16
aI13
aI16
aa(lp702
I3
aI6
aI4
aI9
aI11
aI7
aI9
aI15
aI11
aI10
aI12
aI15
aI10
aI13
aI10
aI12
aI10
aI13
aI18
aI16
aa(lp703
I5
aI6
aI8
aI8
aI11
aI12
aI14
aI12
aI11
aI16
aI15
aI16
aI14
aI15
aI14
aI17
aI14
aI14
aI17
aI15
aa(lp704
I2
aI3
aI5
aI5
aI6
aI11
aI7
aI10
aI8
aI10
aI15
aI17
aI18
aI16
aI13
aI17
aI13
aI18
aI18
aI15
aa(lp705
I5
aI2
aI3
aI8
aI9
aI9
aI7
aI11
aI9
aI8
aI11
aI7
aI8
aI11
aI7
aI14
aI11
aI10
aI15
aI11
aa(lp706
I6
aI4
aI2
aI5
aI4
aI8
aI8
aI8
aI7
aI10
aI8
aI7
aI8
aI11
aI9
aI12
aI12
aI14
aI15
aI17
aa(lp707
I1
aI4
aI9
aI10
aI9
aI9
aI10
aI13
aI15
aI14
aI14
aI13
aI12
aI13
aI18
aI15
aI17
aI15
aI17
aI18
aa(lp708
I1
aI5
aI8
aI7
aI12
aI15
aI18
aI16
aI15
aI13
aI13
aI18
aI15
aI16
aI13
aI13
aI17
aI14
aI16
aI16
aa(lp709
I1
aI7
aI5
aI7
aI7
aI11
aI10
aI10
aI11
aI15
aI14
aI17
aI14
aI16
aI18
aI16
aI17
aI14
aI16
aI14
aa(lp710
I3
aI6
aI3
aI9
aI6
aI4
aI12
aI12
aI12
aI10
aI12
aI13
aI12
aI15
aI15
aI16
aI17
aI14
aI17
aI17
aa(lp711
I1
aI6
aI7
aI9
aI8
aI5
aI6
aI8
aI6
aI8
aI9
aI11
aI8
aI9
aI11
aI12
aI13
aI11
aI10
aI15
aa(lp712
I1
aI5
aI9
aI14
aI15
aI15
aI15
aI13
aI13
aI14
aI14
aI18
aI16
aI15
aI16
aI18
aI18
aI14
aI14
aI18
aa(lp713
I6
aI4
aI6
aI9
aI11
aI7
aI8
aI10
aI11
aI7
aI10
aI10
aI14
aI10
aI13
aI10
aI12
aI18
aI17
aI18
aa(lp714
I3
aI4
aI7
aI8
aI5
aI8
aI11
aI15
aI12
aI13
aI15
aI13
aI15
aI13
aI18
aI18
aI18
aI18
aI15
aI18
aa(lp715
I2
aI3
aI8
aI8
aI12
aI7
aI10
aI15
aI15
aI12
aI14
aI15
aI15
aI14
aI18
aI16
aI16
aI17
aI15
aI14
aa(lp716
I1
aI6
aI4
aI7
aI7
aI9
aI12
aI14
aI10
aI14
aI12
aI10
aI10
aI11
aI13
aI13
aI15
aI14
aI11
aI12
aa(lp717
I2
aI5
aI7
aI10
aI12
aI9
aI10
aI11
aI8
aI7
aI7
aI12
aI15
aI15
aI13
aI13
aI11
aI13
aI14
aI18
aa(lp718
I5
aI2
aI5
aI8
aI8
aI9
aI11
aI10
aI9
aI10
aI8
aI15
aI12
aI10
aI10
aI15
aI15
aI13
aI18
aI18
aa(lp719
I1
aI6
aI9
aI4
aI10
aI9
aI7
aI10
aI8
aI11
aI7
aI11
aI9
aI7
aI8
aI7
aI15
aI11
aI15
aI11
aa(lp720
I4
aI8
aI8
aI9
aI10
aI14
aI14
aI16
aI13
aI16
aI16
aI17
aI18
aI17
aI13
aI18
aI13
aI16
aI13
aI16
aa(lp721
I5
aI4
aI6
aI1
aI5
aI4
aI9
aI5
aI8
aI9
aI9
aI10
aI18
aI17
aI18
aI15
aI15
aI17
aI14
aI17
aa(lp722
I2
aI5
aI11
aI14
aI11
aI11
aI13
aI18
aI17
aI17
aI13
aI17
aI18
aI14
aI15
aI14
aI16
aI13
aI13
aI18
aa(lp723
I4
aI2
aI2
aI3
aI6
aI1
aI8
aI12
aI9
aI8
aI10
aI14
aI15
aI10
aI11
aI13
aI10
aI11
aI10
aI13
aa(lp724
I3
aI9
aI12
aI12
aI8
aI9
aI12
aI10
aI12
aI11
aI11
aI12
aI13
aI12
aI14
aI10
aI17
aI15
aI18
aI17
aa(lp725
I6
aI5
aI9
aI7
aI9
aI9
aI10
aI9
aI7
aI10
aI13
aI12
aI13
aI17
aI18
aI14
aI15
aI18
aI16
aI14
aa(lp726
I1
aI6
aI10
aI12
aI15
aI11
aI12
aI14
aI13
aI11
aI12
aI13
aI11
aI17
aI16
aI16
aI17
aI16
aI17
aI16
aa(lp727
I5
aI6
aI7
aI15
aI12
aI10
aI10
aI15
aI13
aI14
aI16
aI17
aI13
aI18
aI18
aI17
aI13
aI17
aI13
aI18
aa(lp728
I2
aI9
aI9
aI8
aI8
aI12
aI10
aI13
aI13
aI12
aI17
aI15
aI17
aI13
aI16
aI16
aI18
aI14
aI13
aI16
aa(lp729
I2
aI3
aI7
aI11
aI12
aI10
aI13
aI12
aI14
aI18
aI13
aI17
aI15
aI18
aI15
aI18
aI18
aI14
aI17
aI17
aa(lp730
I1
aI9
aI6
aI6
aI11
aI9
aI10
aI12
aI12
aI14
aI12
aI13
aI11
aI14
aI12
aI14
aI11
aI14
aI17
aI17
aa(lp731
I1
aI5
aI8
aI9
aI6
aI7
aI8
aI9
aI7
aI13
aI13
aI11
aI11
aI13
aI14
aI13
aI18
aI14
aI17
aI16
aa(lp732
I5
aI9
aI4
aI4
aI7
aI8
aI12
aI7
aI11
aI10
aI10
aI12
aI14
aI15
aI14
aI15
aI18
aI16
aI15
aI13
aa(lp733
I4
aI5
aI11
aI12
aI7
aI12
aI9
aI7
aI10
aI8
aI10
aI11
aI13
aI13
aI12
aI15
aI13
aI13
aI16
aI17
aa(lp734
I5
aI5
aI3
aI4
aI7
aI11
aI10
aI13
aI13
aI13
aI16
aI18
aI18
aI15
aI17
aI13
aI17
aI17
aI18
aI17
aa(lp735
I3
aI1
aI4
aI4
aI6
aI7
aI12
aI14
aI16
aI17
aI15
aI13
aI17
aI14
aI18
aI17
aI16
aI16
aI13
aI13
aa(lp736
I2
aI6
aI7
aI6
aI8
aI4
aI9
aI4
aI11
aI11
aI7
aI7
aI10
aI7
aI11
aI12
aI15
aI15
aI15
aI16
aa(lp737
I3
aI2
aI9
aI4
aI8
aI5
aI11
aI14
aI11
aI11
aI10
aI16
aI14
aI14
aI13
aI18
aI18
aI15
aI15
aI18
aa(lp738
I3
aI4
aI7
aI5
aI5
aI4
aI9
aI10
aI8
aI11
aI8
aI8
aI11
aI13
aI13
aI18
aI14
aI16
aI14
aI14
aa(lp739
I3
aI6
aI1
aI3
aI6
aI3
aI3
aI2
aI2
aI8
aI5
aI4
aI5
aI9
aI11
aI8
aI11
aI13
aI18
aI13
aa(lp740
I5
aI3
aI6
aI7
aI6
aI4
aI8
aI8
aI8
aI7
aI12
aI15
aI12
aI15
aI18
aI18
aI16
aI16
aI17
aI16
aa(lp741
I4
aI3
aI3
aI1
aI5
aI5
aI6
aI8
aI12
aI7
aI10
aI12
aI14
aI15
aI14
aI12
aI14
aI16
aI17
aI14
aa(lp742
I1
aI8
aI4
aI12
aI7
aI12
aI10
aI9
aI12
aI8
aI8
aI7
aI7
aI9
aI11
aI11
aI12
aI15
aI13
aI17
aa(lp743
I2
aI7
aI4
aI7
aI11
aI9
aI11
aI9
aI7
aI9
aI11
aI14
aI12
aI13
aI12
aI10
aI15
aI14
aI15
aI10
aa(lp744
I1
aI6
aI5
aI9
aI5
aI7
aI5
aI9
aI6
aI10
aI14
aI15
aI14
aI14
aI14
aI17
aI18
aI14
aI18
aI14
aa(lp745
I1
aI1
aI4
aI1
aI2
aI6
aI2
aI4
aI3
aI4
aI6
aI10
aI11
aI11
aI10
aI13
aI10
aI15
aI10
aI10
aa(lp746
I2
aI6
aI8
aI4
aI5
aI12
aI11
aI14
aI10
aI15
aI18
aI18
aI15
aI16
aI15
aI14
aI13
aI17
aI16
aI14
aa(lp747
I2
aI1
aI5
aI5
aI5
aI9
aI12
aI8
aI10
aI14
aI15
aI10
aI15
aI14
aI13
aI18
aI13
aI15
aI18
aI18
aa(lp748
I2
aI7
aI7
aI12
aI14
aI15
aI14
aI17
aI17
aI16
aI15
aI15
aI18
aI13
aI17
aI14
aI15
aI15
aI14
aI15
aa(lp749
I4
aI9
aI4
aI8
aI7
aI4
aI8
aI11
aI12
aI12
aI10
aI14
aI15
aI15
aI14
aI13
aI13
aI13
aI17
aI15
aa(lp750
I6
aI4
aI5
aI5
aI6
aI8
aI7
aI11
aI8
aI11
aI10
aI10
aI15
aI14
aI11
aI18
aI15
aI14
aI13
aI18
aa(lp751
I6
aI8
aI8
aI9
aI7
aI9
aI8
aI9
aI7
aI7
aI8
aI10
aI11
aI10
aI9
aI10
aI7
aI12
aI12
aI7
aa(lp752
I6
aI9
aI11
aI8
aI11
aI12
aI12
aI16
aI16
aI18
aI15
aI16
aI15
aI18
aI15
aI17
aI18
aI18
aI18
aI14
aa(lp753
I2
aI1
aI4
aI6
aI5
aI8
aI8
aI9
aI7
aI10
aI11
aI10
aI13
aI13
aI15
aI16
aI17
aI14
aI16
aI15
aa(lp754
I1
aI2
aI4
aI8
aI4
aI8
aI7
aI5
aI11
aI10
aI11
aI15
aI10
aI10
aI10
aI12
aI10
aI12
aI13
aI15
aa(lp755
I2
aI8
aI12
aI10
aI11
aI7
aI9
aI9
aI15
aI12
aI14
aI16
aI13
aI16
aI16
aI14
aI16
aI15
aI15
aI15
aa(lp756
I3
aI9
aI4
aI7
aI6
aI6
aI9
aI12
aI10
aI16
aI13
aI17
aI18
aI16
aI14
aI13
aI14
aI17
aI17
aI15
aa(lp757
I3
aI2
aI2
aI4
aI10
aI7
aI15
aI17
aI14
aI18
aI16
aI18
aI15
aI17
aI17
aI18
aI18
aI18
aI14
aI13
aa(lp758
I4
aI4
aI9
aI11
aI12
aI15
aI14
aI12
aI12
aI13
aI17
aI14
aI15
aI16
aI15
aI17
aI14
aI15
aI18
aI13
aa(lp759
I3
aI4
aI3
aI4
aI7
aI8
aI7
aI10
aI12
aI11
aI10
aI11
aI14
aI12
aI10
aI11
aI14
aI16
aI15
aI14
aa(lp760
I5
aI4
aI5
aI10
aI12
aI12
aI13
aI16
aI18
aI14
aI13
aI15
aI17
aI15
aI16
aI14
aI15
aI17
aI14
aI17
aa(lp761
I2
aI5
aI5
aI7
aI12
aI12
aI9
aI10
aI11
aI10
aI12
aI15
aI12
aI12
aI14
aI15
aI17
aI13
aI14
aI16
aa(lp762
I1
aI3
aI6
aI4
aI9
aI9
aI8
aI15
aI11
aI12
aI13
aI12
aI18
aI14
aI15
aI16
aI18
aI13
aI18
aI16
aa(lp763
I5
aI5
aI5
aI8
aI8
aI14
aI13
aI13
aI12
aI12
aI10
aI10
aI15
aI18
aI16
aI15
aI15
aI15
aI17
aI15
aa(lp764
I5
aI1
aI4
aI7
aI8
aI11
aI7
aI12
aI9
aI8
aI7
aI9
aI12
aI14
aI14
aI18
aI18
aI17
aI13
aI17
aa(lp765
I1
aI2
aI6
aI9
aI8
aI12
aI15
aI11
aI10
aI14
aI14
aI11
aI14
aI15
aI15
aI13
aI15
aI14
aI16
aI13
aa(lp766
I4
aI1
aI4
aI6
aI9
aI8
aI11
aI10
aI10
aI12
aI13
aI14
aI17
aI14
aI18
aI17
aI17
aI14
aI16
aI14
aa(lp767
I6
aI2
aI5
aI6
aI6
aI12
aI11
aI9
aI9
aI11
aI14
aI11
aI14
aI15
aI17
aI15
aI13
aI16
aI15
aI15
aa(lp768
I5
aI4
aI9
aI11
aI10
aI8
aI12
aI14
aI11
aI11
aI16
aI14
aI13
aI17
aI17
aI16
aI13
aI13
aI15
aI15
aa(lp769
I4
aI4
aI6
aI5
aI7
aI6
aI7
aI5
aI5
aI11
aI10
aI12
aI9
aI10
aI13
aI13
aI10
aI10
aI12
aI13
aa(lp770
I1
aI4
aI4
aI4
aI9
aI8
aI10
aI13
aI11
aI12
aI15
aI15
aI15
aI18
aI17
aI13
aI15
aI15
aI14
aI14
aa(lp771
I4
aI3
aI6
aI6
aI6
aI3
aI3
aI8
aI10
aI12
aI15
aI11
aI12
aI14
aI16
aI15
aI14
aI13
aI16
aI17
aa(lp772
I5
aI7
aI6
aI10
aI13
aI13
aI12
aI10
aI12
aI12
aI14
aI15
aI11
aI11
aI12
aI10
aI11
aI15
aI10
aI11
aa(lp773
I6
aI4
aI4
aI6
aI5
aI4
aI12
aI12
aI17
aI16
aI14
aI18
aI13
aI17
aI17
aI15
aI18
aI13
aI16
aI17
aa(lp774
I6
aI4
aI4
aI9
aI10
aI9
aI12
aI9
aI11
aI17
aI15
aI16
aI13
aI14
aI15
aI15
aI18
aI13
aI13
aI14
aa(lp775
I4
aI6
aI6
aI8
aI9
aI8
aI11
aI8
aI12
aI12
aI15
aI14
aI11
aI15
aI10
aI12
aI18
aI16
aI16
aI16
aa(lp776
I3
aI5
aI6
aI4
aI8
aI9
aI10
aI10
aI14
aI13
aI13
aI16
aI17
aI15
aI17
aI14
aI18
aI14
aI17
aI15
aa(lp777
I6
aI8
aI6
aI4
aI8
aI5
aI9
aI4
aI7
aI11
aI14
aI14
aI11
aI15
aI16
aI17
aI15
aI15
aI18
aI14
aa(lp778
I3
aI1
aI1
aI6
aI4
aI5
aI4
aI4
aI4
aI9
aI5
aI8
aI9
aI7
aI6
aI7
aI11
aI10
aI12
aI8
aa(lp779
I6
aI1
aI5
aI4
aI7
aI8
aI10
aI10
aI13
aI12
aI15
aI15
aI11
aI13
aI17
aI15
aI16
aI18
aI15
aI15
aa(lp780
I5
aI8
aI7
aI8
aI11
aI8
aI15
aI13
aI14
aI15
aI14
aI17
aI13
aI14
aI17
aI16
aI15
aI16
aI14
aI18
aa(lp781
I4
aI2
aI5
aI7
aI7
aI10
aI10
aI10
aI12
aI11
aI11
aI12
aI14
aI14
aI15
aI17
aI14
aI14
aI14
aI15
aa(lp782
I5
aI8
aI7
aI9
aI12
aI12
aI13
aI10
aI10
aI10
aI12
aI15
aI10
aI14
aI11
aI13
aI13
aI14
aI15
aI14
aa(lp783
I4
aI4
aI7
aI11
aI11
aI12
aI8
aI9
aI11
aI15
aI12
aI10
aI14
aI14
aI13
aI10
aI14
aI11
aI12
aI13
aa(lp784
I5
aI6
aI9
aI9
aI8
aI5
aI7
aI9
aI9
aI11
aI11
aI13
aI15
aI10
aI13
aI11
aI14
aI15
aI15
aI15
aa(lp785
I2
aI5
aI4
aI9
aI4
aI8
aI12
aI9
aI7
aI10
aI11
aI13
aI11
aI14
aI14
aI16
aI14
aI13
aI17
aI14
aa(lp786
I6
aI5
aI9
aI6
aI9
aI12
aI12
aI12
aI10
aI16
aI14
aI15
aI15
aI14
aI14
aI18
aI15
aI18
aI17
aI13
aa(lp787
I2
aI4
aI9
aI12
aI11
aI13
aI12
aI13
aI10
aI15
aI14
aI14
aI15
aI18
aI16
aI14
aI13
aI18
aI13
aI15
aa(lp788
I2
aI6
aI11
aI12
aI11
aI12
aI10
aI11
aI11
aI10
aI11
aI11
aI15
aI18
aI13
aI18
aI17
aI16
aI13
aI16
aa(lp789
I4
aI7
aI4
aI9
aI8
aI7
aI10
aI13
aI12
aI14
aI15
aI14
aI16
aI16
aI16
aI13
aI14
aI13
aI17
aI18
aa(lp790
I2
aI9
aI9
aI5
aI12
aI12
aI11
aI11
aI12
aI13
aI16
aI18
aI14
aI13
aI18
aI17
aI13
aI16
aI16
aI13
aa(lp791
I5
aI1
aI9
aI9
aI7
aI7
aI10
aI8
aI14
aI17
aI15
aI18
aI18
aI17
aI15
aI15
aI14
aI15
aI18
aI13
aa(lp792
I2
aI5
aI7
aI11
aI15
aI17
aI16
aI17
aI16
aI18
aI18
aI13
aI17
aI14
aI15
aI15
aI16
aI17
aI17
aI13
aa(lp793
I5
aI6
aI7
aI11
aI7
aI10
aI7
aI10
aI11
aI12
aI14
aI13
aI15
aI17
aI18
aI14
aI17
aI16
aI17
aI18
aa(lp794
I5
aI5
aI7
aI12
aI11
aI13
aI15
aI12
aI10
aI13
aI14
aI14
aI17
aI16
aI16
aI14
aI16
aI16
aI15
aI13
aa(lp795
I4
aI6
aI1
aI8
aI4
aI7
aI9
aI4
aI11
aI8
aI11
aI8
aI10
aI10
aI15
aI13
aI14
aI17
aI18
aI15
aa(lp796
I5
aI9
aI4
aI6
aI4
aI5
aI7
aI5
aI10
aI11
aI12
aI12
aI13
aI15
aI18
aI13
aI15
aI15
aI17
aI17
aa(lp797
I6
aI2
aI5
aI4
aI9
aI5
aI9
aI10
aI11
aI10
aI9
aI9
aI8
aI12
aI9
aI7
aI8
aI11
aI12
aI15
aa(lp798
I4
aI7
aI11
aI12
aI18
aI15
aI14
aI18
aI14
aI17
aI18
aI16
aI18
aI14
aI15
aI17
aI16
aI16
aI13
aI14
aa(lp799
I6
aI4
aI6
aI6
aI11
aI8
aI9
aI12
aI9
aI8
aI8
aI11
aI10
aI13
aI15
aI14
aI17
aI16
aI15
aI18
aa(lp800
I3
aI3
aI2
aI2
aI4
aI1
aI9
aI8
aI4
aI5
aI9
aI6
aI5
aI7
aI7
aI8
aI11
aI9
aI7
aI8
aa(lp801
I5
aI9
aI8
aI10
aI10
aI7
aI9
aI11
aI12
aI8
aI15
aI13
aI13
aI13
aI13
aI18
aI13
aI17
aI14
aI16
aa(lp802
I4
aI5
aI4
aI6
aI7
aI9
aI8
aI8
aI7
aI11
aI14
aI13
aI17
aI16
aI18
aI13
aI13
aI16
aI17
aI13
aa(lp803
I4
aI9
aI8
aI12
aI11
aI12
aI10
aI15
aI13
aI11
aI10
aI17
aI13
aI16
aI14
aI16
aI15
aI14
aI16
aI16
aa(lp804
I5
aI8
aI4
aI4
aI4
aI4
aI7
aI6
aI6
aI12
aI8
aI12
aI7
aI10
aI9
aI10
aI15
aI15
aI14
aI11
aa(lp805
I6
aI1
aI1
aI6
aI6
aI9
aI7
aI10
aI10
aI10
aI11
aI14
aI14
aI14
aI12
aI10
aI11
aI13
aI13
aI12
aa(lp806
I6
aI4
aI8
aI9
aI9
aI7
aI14
aI14
aI11
aI17
aI14
aI15
aI18
aI17
aI18
aI15
aI17
aI17
aI16
aI15
aa(lp807
I1
aI8
aI8
aI6
aI4
aI8
aI7
aI6
aI12
aI9
aI9
aI10
aI11
aI16
aI16
aI18
aI14
aI15
aI13
aI13
aa(lp808
I3
aI5
aI7
aI8
aI8
aI15
aI15
aI11
aI14
aI12
aI10
aI10
aI14
aI14
aI13
aI18
aI18
aI18
aI17
aI15
aa(lp809
I5
aI1
aI5
aI6
aI4
aI8
aI8
aI5
aI7
aI7
aI12
aI11
aI10
aI13
aI12
aI12
aI11
aI11
aI13
aI13
aa(lp810
I2
aI2
aI8
aI6
aI9
aI6
aI4
aI9
aI7
aI9
aI14
aI10
aI14
aI11
aI13
aI10
aI12
aI13
aI13
aI15
aa(lp811
I3
aI2
aI2
aI2
aI9
aI7
aI9
aI8
aI10
aI12
aI11
aI9
aI12
aI8
aI10
aI10
aI7
aI7
aI12
aI18
aa(lp812
I3
aI4
aI3
aI5
aI8
aI9
aI11
aI11
aI10
aI15
aI12
aI13
aI16
aI14
aI17
aI17
aI18
aI13
aI16
aI18
aa(lp813
I2
aI7
aI9
aI11
aI9
aI12
aI9
aI14
aI13
aI14
aI17
aI13
aI16
aI13
aI18
aI16
aI16
aI18
aI16
aI18
aa(lp814
I4
aI3
aI5
aI5
aI12
aI7
aI9
aI8
aI10
aI13
aI15
aI13
aI13
aI14
aI18
aI13
aI13
aI14
aI15
aI18
aa(lp815
I1
aI2
aI6
aI8
aI11
aI10
aI13
aI16
aI13
aI14
aI17
aI18
aI15
aI15
aI14
aI15
aI15
aI13
aI13
aI14
aa(lp816
I3
aI7
aI12
aI8
aI10
aI14
aI10
aI15
aI13
aI11
aI10
aI15
aI12
aI11
aI10
aI13
aI14
aI10
aI15
aI15
aa(lp817
I6
aI2
aI4
aI8
aI14
aI15
aI10
aI15
aI10
aI14
aI13
aI13
aI14
aI16
aI16
aI13
aI13
aI17
aI13
aI15
aa(lp818
I5
aI2
aI8
aI9
aI8
aI12
aI18
aI14
aI14
aI16
aI14
aI18
aI18
aI16
aI18
aI17
aI18
aI14
aI16
aI17
aa(lp819
I3
aI8
aI4
aI7
aI6
aI5
aI8
aI6
aI5
aI5
aI8
aI5
aI7
aI11
aI12
aI15
aI16
aI15
aI17
aI18
aa(lp820
I5
aI6
aI6
aI4
aI9
aI9
aI11
aI8
aI9
aI7
aI7
aI10
aI10
aI11
aI11
aI12
aI12
aI12
aI14
aI12
aa(lp821
I4
aI9
aI8
aI4
aI10
aI7
aI11
aI12
aI10
aI11
aI10
aI12
aI14
aI10
aI10
aI11
aI14
aI11
aI11
aI15
aa(lp822
I4
aI6
aI7
aI6
aI10
aI11
aI11
aI10
aI9
aI10
aI14
aI13
aI15
aI16
aI13
aI14
aI18
aI15
aI18
aI14
aa(lp823
I2
aI4
aI9
aI5
aI5
aI5
aI6
aI7
aI10
aI10
aI11
aI12
aI13
aI14
aI13
aI14
aI17
aI15
aI14
aI14
aa(lp824
I3
aI1
aI5
aI8
aI7
aI7
aI7
aI12
aI14
aI13
aI11
aI14
aI18
aI16
aI17
aI17
aI17
aI16
aI14
aI13
aa(lp825
I4
aI5
aI4
aI7
aI11
aI7
aI9
aI15
aI12
aI13
aI12
aI10
aI16
aI13
aI16
aI15
aI15
aI16
aI17
aI17
aa(lp826
I2
aI1
aI9
aI4
aI10
aI12
aI13
aI18
aI13
aI15
aI15
aI13
aI18
aI18
aI16
aI17
aI14
aI13
aI17
aI18
aa(lp827
I6
aI7
aI5
aI7
aI10
aI7
aI12
aI12
aI12
aI9
aI14
aI14
aI14
aI16
aI15
aI14
aI17
aI14
aI17
aI14
aa(lp828
I2
aI4
aI6
aI7
aI5
aI8
aI7
aI9
aI10
aI14
aI14
aI10
aI10
aI15
aI10
aI12
aI16
aI14
aI15
aI16
aa(lp829
I2
aI1
aI7
aI6
aI8
aI8
aI11
aI14
aI15
aI13
aI17
aI17
aI13
aI15
aI13
aI15
aI17
aI17
aI16
aI17
aa(lp830
I1
aI5
aI5
aI9
aI11
aI14
aI14
aI15
aI13
aI15
aI12
aI17
aI14
aI14
aI17
aI18
aI15
aI14
aI18
aI17
aa(lp831
I1
aI4
aI2
aI2
aI4
aI2
aI1
aI6
aI5
aI9
aI14
aI15
aI12
aI11
aI12
aI11
aI13
aI12
aI16
aI14
aa(lp832
I6
aI5
aI8
aI8
aI4
aI9
aI7
aI6
aI5
aI8
aI7
aI6
aI6
aI8
aI7
aI9
aI7
aI12
aI8
aI12
aa(lp833
I6
aI5
aI1
aI8
aI7
aI11
aI10
aI9
aI9
aI9
aI12
aI18
aI17
aI16
aI13
aI13
aI13
aI18
aI16
aI16
aa(lp834
I6
aI7
aI7
aI10
aI10
aI10
aI11
aI13
aI10
aI11
aI13
aI15
aI13
aI17
aI17
aI18
aI17
aI18
aI14
aI14
aa(lp835
I2
aI6
aI2
aI4
aI4
aI3
aI4
aI5
aI6
aI8
aI6
aI8
aI7
aI11
aI8
aI12
aI7
aI7
aI15
aI12
aa(lp836
I1
aI2
aI4
aI2
aI5
aI6
aI4
aI7
aI9
aI10
aI8
aI11
aI12
aI8
aI14
aI10
aI10
aI14
aI11
aI15
aa(lp837
I2
aI1
aI4
aI3
aI7
aI4
aI5
aI12
aI10
aI13
aI10
aI12
aI12
aI12
aI14
aI11
aI14
aI15
aI10
aI10
aa(lp838
I2
aI2
aI9
aI9
aI5
aI7
aI10
aI15
aI13
aI13
aI15
aI14
aI14
aI15
aI15
aI13
aI16
aI14
aI14
aI14
aa(lp839
I2
aI9
aI9
aI11
aI8
aI12
aI10
aI13
aI13
aI13
aI10
aI11
aI16
aI16
aI18
aI13
aI17
aI18
aI14
aI13
aa(lp840
I3
aI6
aI6
aI4
aI9
aI8
aI11
aI10
aI7
aI12
aI8
aI10
aI7
aI9
aI10
aI10
aI12
aI9
aI10
aI8
aa(lp841
I2
aI8
aI4
aI7
aI11
aI12
aI10
aI10
aI12
aI8
aI10
aI13
aI10
aI16
aI14
aI15
aI13
aI17
aI18
aI18
aa(lp842
I1
aI8
aI9
aI7
aI12
aI14
aI12
aI13
aI14
aI14
aI13
aI17
aI16
aI16
aI17
aI14
aI17
aI18
aI15
aI15
aa(lp843
I2
aI3
aI4
aI5
aI6
aI9
aI10
aI14
aI15
aI14
aI15
aI13
aI17
aI15
aI16
aI14
aI16
aI18
aI16
aI18
aa(lp844
I4
aI6
aI7
aI7
aI9
aI11
aI11
aI8
aI11
aI11
aI10
aI10
aI18
aI16
aI18
aI18
aI18
aI17
aI14
aI13
aa(lp845
I3
aI5
aI6
aI8
aI10
aI9
aI11
aI15
aI13
aI10
aI17
aI17
aI17
aI16
aI18
aI16
aI18
aI18
aI18
aI16
aa(lp846
I5
aI6
aI9
aI9
aI10
aI12
aI12
aI11
aI10
aI13
aI10
aI16
aI15
aI16
aI16
aI13
aI18
aI17
aI15
aI14
aa(lp847
I6
aI8
aI7
aI9
aI12
aI12
aI12
aI8
aI10
aI10
aI13
aI16
aI16
aI16
aI18
aI17
aI17
aI17
aI14
aI15
aa(lp848
I4
aI7
aI11
aI9
aI13
aI10
aI15
aI15
aI14
aI12
aI10
aI12
aI11
aI13
aI15
aI11
aI13
aI10
aI13
aI13
aa(lp849
I6
aI9
aI8
aI7
aI15
aI15
aI12
aI12
aI13
aI12
aI15
aI11
aI17
aI16
aI13
aI14
aI17
aI16
aI17
aI14
aa(lp850
I2
aI7
aI7
aI8
aI7
aI12
aI15
aI10
aI14
aI18
aI14
aI15
aI15
aI13
aI15
aI16
aI17
aI16
aI17
aI15
aa(lp851
I3
aI5
aI9
aI11
aI9
aI11
aI11
aI11
aI17
aI18
aI17
aI14
aI17
aI17
aI13
aI16
aI16
aI17
aI17
aI16
aa(lp852
I3
aI3
aI8
aI9
aI9
aI7
aI9
aI7
aI7
aI10
aI12
aI15
aI15
aI14
aI14
aI18
aI14
aI16
aI13
aI17
aa(lp853
I6
aI3
aI6
aI5
aI6
aI12
aI10
aI11
aI10
aI12
aI17
aI13
aI17
aI17
aI14
aI17
aI16
aI13
aI15
aI16
aa(lp854
I5
aI9
aI11
aI13
aI15
aI15
aI14
aI15
aI18
aI17
aI16
aI14
aI13
aI17
aI13
aI17
aI15
aI18
aI13
aI14
aa(lp855
I1
aI4
aI9
aI9
aI4
aI4
aI8
aI10
aI12
aI13
aI10
aI15
aI10
aI11
aI15
aI12
aI10
aI13
aI13
aI15
aa(lp856
I1
aI1
aI4
aI5
aI8
aI7
aI11
aI9
aI10
aI13
aI12
aI10
aI15
aI18
aI16
aI18
aI13
aI17
aI15
aI14
aa(lp857
I4
aI6
aI4
aI9
aI9
aI4
aI5
aI7
aI9
aI12
aI10
aI7
aI9
aI11
aI15
aI13
aI14
aI17
aI14
aI14
aa(lp858
I2
aI5
aI5
aI10
aI11
aI8
aI9
aI12
aI9
aI10
aI10
aI9
aI14
aI14
aI14
aI12
aI12
aI18
aI14
aI16
aa(lp859
I1
aI2
aI2
aI4
aI10
aI11
aI18
aI15
aI16
aI14
aI15
aI15
aI17
aI13
aI18
aI14
aI14
aI18
aI16
aI18
aa(lp860
I1
aI5
aI10
aI8
aI9
aI8
aI8
aI9
aI15
aI12
aI15
aI15
aI11
aI13
aI17
aI13
aI14
aI17
aI13
aI16
aa(lp861
I5
aI4
aI5
aI9
aI10
aI11
aI9
aI7
aI8
aI7
aI11
aI8
aI10
aI10
aI15
aI13
aI14
aI17
aI18
aI15
aa(lp862
I1
aI8
aI11
aI14
aI18
aI15
aI14
aI17
aI18
aI15
aI15
aI14
aI18
aI13
aI15
aI15
aI17
aI18
aI18
aI14
aa(lp863
I1
aI6
aI6
aI9
aI5
aI9
aI5
aI4
aI11
aI7
aI10
aI12
aI12
aI12
aI13
aI16
aI18
aI18
aI17
aI18
aa(lp864
I5
aI4
aI7
aI4
aI5
aI4
aI7
aI10
aI8
aI10
aI9
aI11
aI14
aI10
aI15
aI15
aI18
aI14
aI17
aI16
aa(lp865
I1
aI5
aI9
aI7
aI7
aI7
aI10
aI15
aI14
aI11
aI15
aI11
aI11
aI15
aI15
aI15
aI13
aI17
aI17
aI17
aa(lp866
I4
aI9
aI8
aI4
aI8
aI7
aI12
aI10
aI14
aI17
aI15
aI15
aI18
aI15
aI13
aI17
aI13
aI13
aI18
aI16
aa(lp867
I6
aI9
aI9
aI12
aI12
aI14
aI14
aI14
aI17
aI14
aI18
aI15
aI14
aI13
aI16
aI14
aI15
aI14
aI13
aI13
aa(lp868
I6
aI6
aI6
aI6
aI7
aI5
aI5
aI5
aI8
aI9
aI7
aI7
aI10
aI11
aI15
aI14
aI16
aI14
aI16
aI18
aa(lp869
I2
aI5
aI5
aI5
aI9
aI7
aI12
aI11
aI15
aI14
aI13
aI17
aI18
aI16
aI16
aI15
aI16
aI18
aI13
aI13
aa(lp870
I3
aI3
aI2
aI2
aI5
aI7
aI8
aI5
aI7
aI7
aI4
aI8
aI8
aI12
aI7
aI10
aI10
aI12
aI8
aI12
aa(lp871
I5
aI2
aI5
aI8
aI5
aI10
aI7
aI14
aI14
aI15
aI15
aI17
aI13
aI15
aI14
aI15
aI13
aI17
aI16
aI13
aa(lp872
I3
aI4
aI6
aI6
aI7
aI9
aI8
aI5
aI6
aI7
aI4
aI7
aI11
aI7
aI10
aI11
aI8
aI9
aI9
aI10
aa(lp873
I4
aI4
aI1
aI4
aI8
aI9
aI9
aI10
aI9
aI8
aI7
aI10
aI8
aI14
aI12
aI11
aI12
aI10
aI12
aI10
aa(lp874
I4
aI6
aI5
aI8
aI8
aI7
aI12
aI12
aI11
aI14
aI15
aI18
aI13
aI18
aI13
aI13
aI15
aI15
aI14
aI13
aa(lp875
I2
aI5
aI6
aI11
aI10
aI10
aI14
aI15
aI10
aI13
aI15
aI13
aI14
aI12
aI14
aI17
aI13
aI14
aI14
aI17
aa(lp876
I1
aI6
aI7
aI7
aI8
aI14
aI12
aI13
aI18
aI17
aI17
aI17
aI14
aI16
aI15
aI14
aI17
aI13
aI15
aI18
aa(lp877
I1
aI8
aI10
aI12
aI11
aI14
aI14
aI18
aI18
aI14
aI16
aI17
aI15
aI13
aI13
aI17
aI17
aI13
aI18
aI13
aa(lp878
I1
aI2
aI5
aI5
aI12
aI8
aI8
aI15
aI15
aI16
aI13
aI18
aI18
aI17
aI13
aI16
aI14
aI14
aI18
aI15
aa(lp879
I5
aI2
aI7
aI11
aI10
aI7
aI7
aI10
aI10
aI11
aI9
aI12
aI9
aI8
aI10
aI17
aI17
aI13
aI15
aI14
aa(lp880
I5
aI7
aI5
aI9
aI14
aI11
aI15
aI11
aI14
aI17
aI18
aI16
aI13
aI18
aI14
aI13
aI14
aI15
aI17
aI13
aa(lp881
I2
aI6
aI9
aI7
aI10
aI13
aI13
aI15
aI13
aI15
aI16
aI13
aI17
aI15
aI15
aI18
aI15
aI14
aI18
aI16
aa(lp882
I2
aI6
aI11
aI8
aI8
aI8
aI8
aI7
aI12
aI7
aI10
aI12
aI14
aI15
aI12
aI14
aI17
aI13
aI13
aI14
aa(lp883
I4
aI9
aI6
aI9
aI7
aI8
aI8
aI7
aI7
aI7
aI15
aI17
aI16
aI13
aI13
aI16
aI14
aI15
aI14
aI15
aa(lp884
I5
aI6
aI7
aI12
aI7
aI12
aI9
aI12
aI15
aI15
aI14
aI14
aI17
aI14
aI14
aI18
aI18
aI17
aI13
aI18
aa(lp885
I5
aI7
aI8
aI7
aI6
aI7
aI11
aI11
aI8
aI15
aI10
aI10
aI17
aI17
aI15
aI15
aI16
aI14
aI16
aI13
aa(lp886
I5
aI6
aI4
aI9
aI9
aI10
aI13
aI10
aI11
aI13
aI13
aI12
aI15
aI14
aI15
aI13
aI18
aI15
aI15
aI17
aa(lp887
I2
aI6
aI4
aI9
aI6
aI11
aI8
aI9
aI11
aI14
aI15
aI14
aI15
aI18
aI16
aI15
aI14
aI13
aI17
aI16
aa(lp888
I1
aI6
aI8
aI8
aI6
aI7
aI6
aI7
aI10
aI13
aI14
aI14
aI12
aI12
aI15
aI10
aI13
aI14
aI11
aI14
aa(lp889
I6
aI8
aI4
aI12
aI7
aI8
aI7
aI9
aI15
aI11
aI15
aI15
aI15
aI13
aI15
aI14
aI13
aI14
aI17
aI17
aa(lp890
I1
aI5
aI9
aI10
aI11
aI14
aI14
aI13
aI17
aI17
aI18
aI13
aI15
aI17
aI16
aI13
aI18
aI16
aI18
aI18
aa(lp891
I5
aI4
aI9
aI11
aI11
aI10
aI14
aI15
aI13
aI14
aI13
aI17
aI13
aI13
aI15
aI15
aI16
aI13
aI14
aI14
aa(lp892
I5
aI1
aI7
aI7
aI10
aI10
aI10
aI14
aI10
aI18
aI13
aI14
aI16
aI16
aI18
aI18
aI17
aI18
aI14
aI14
aa(lp893
I6
aI1
aI4
aI6
aI2
aI6
aI7
aI7
aI11
aI11
aI16
aI15
aI18
aI15
aI17
aI16
aI18
aI18
aI17
aI14
aa(lp894
I6
aI8
aI4
aI6
aI9
aI10
aI10
aI16
aI13
aI13
aI15
aI14
aI13
aI16
aI17
aI18
aI14
aI14
aI14
aI15
aa(lp895
I1
aI6
aI6
aI9
aI9
aI9
aI7
aI10
aI8
aI10
aI8
aI7
aI12
aI14
aI10
aI17
aI18
aI13
aI15
aI13
aa(lp896
I2
aI8
aI7
aI10
aI13
aI15
aI12
aI11
aI10
aI17
aI16
aI13
aI14
aI13
aI14
aI13
aI13
aI18
aI15
aI13
aa(lp897
I5
aI6
aI5
aI8
aI9
aI14
aI15
aI15
aI16
aI13
aI17
aI17
aI13
aI16
aI13
aI14
aI13
aI18
aI15
aI13
aa(lp898
I1
aI4
aI7
aI13
aI14
aI10
aI11
aI15
aI11
aI13
aI13
aI14
aI16
aI14
aI14
aI15
aI16
aI14
aI18
aI18
aa(lp899
I4
aI9
aI9
aI8
aI10
aI10
aI11
aI15
aI15
aI13
aI18
aI17
aI13
aI17
aI13
aI17
aI15
aI17
aI13
aI14
aa(lp900
I4
aI4
aI7
aI5
aI4
aI9
aI11
aI7
aI8
aI12
aI8
aI7
aI10
aI10
aI14
aI15
aI15
aI12
aI13
aI18
aa(lp901
I2
aI5
aI8
aI6
aI11
aI7
aI10
aI11
aI14
aI17
aI15
aI13
aI18
aI16
aI15
aI18
aI14
aI16
aI16
aI14
aa(lp902
I4
aI4
aI5
aI5
aI6
aI4
aI8
aI5
aI8
aI8
aI8
aI14
aI10
aI17
aI18
aI16
aI18
aI13
aI18
aI15
aa(lp903
I4
aI4
aI6
aI3
aI9
aI8
aI12
aI11
aI14
aI12
aI15
aI12
aI14
aI15
aI15
aI13
aI17
aI14
aI18
aI18
aa(lp904
I4
aI3
aI1
aI6
aI4
aI5
aI2
aI7
aI4
aI8
aI8
aI10
aI9
aI7
aI10
aI7
aI12
aI12
aI12
aI14
aa(lp905
I5
aI1
aI7
aI4
aI10
aI12
aI12
aI13
aI10
aI15
aI11
aI17
aI16
aI13
aI18
aI13
aI15
aI15
aI14
aI15
aa(lp906
I6
aI5
aI4
aI6
aI8
aI9
aI7
aI12
aI14
aI10
aI15
aI15
aI10
aI15
aI15
aI16
aI17
aI18
aI13
aI18
aa(lp907
I2
aI3
aI5
aI9
aI10
aI8
aI14
aI15
aI15
aI16
aI18
aI14
aI18
aI18
aI14
aI13
aI13
aI14
aI16
aI15
aa(lp908
I5
aI2
aI1
aI4
aI8
aI4
aI5
aI7
aI8
aI11
aI14
aI18
aI16
aI15
aI14
aI13
aI14
aI13
aI14
aI17
aa(lp909
I3
aI3
aI2
aI7
aI11
aI10
aI11
aI12
aI7
aI12
aI13
aI14
aI15
aI15
aI14
aI12
aI10
aI14
aI15
aI15
aa(lp910
I4
aI4
aI10
aI12
aI11
aI13
aI14
aI11
aI13
aI11
aI14
aI16
aI13
aI16
aI15
aI15
aI18
aI17
aI18
aI18
aa(lp911
I2
aI3
aI3
aI5
aI9
aI8
aI4
aI8
aI11
aI10
aI13
aI12
aI12
aI10
aI16
aI16
aI15
aI15
aI13
aI17
aa(lp912
I2
aI5
aI1
aI6
aI8
aI10
aI12
aI7
aI9
aI11
aI7
aI12
aI10
aI11
aI7
aI11
aI11
aI15
aI18
aI13
aa(lp913
I4
aI4
aI7
aI9
aI11
aI10
aI10
aI14
aI12
aI10
aI15
aI13
aI11
aI12
aI17
aI16
aI14
aI17
aI15
aI14
aa(lp914
I3
aI5
aI7
aI12
aI12
aI8
aI12
aI11
aI11
aI13
aI16
aI14
aI16
aI17
aI18
aI15
aI14
aI18
aI17
aI16
aa(lp915
I1
aI4
aI1
aI1
aI9
aI5
aI12
aI12
aI11
aI10
aI13
aI13
aI14
aI16
aI16
aI17
aI13
aI13
aI16
aI16
aa(lp916
I1
aI4
aI10
aI14
aI12
aI10
aI11
aI13
aI15
aI18
aI14
aI14
aI17
aI18
aI14
aI18
aI15
aI17
aI13
aI16
aa(lp917
I6
aI6
aI12
aI8
aI8
aI8
aI11
aI11
aI12
aI10
aI12
aI11
aI10
aI12
aI15
aI14
aI17
aI13
aI15
aI13
aa(lp918
I1
aI5
aI4
aI5
aI5
aI4
aI7
aI7
aI10
aI11
aI13
aI14
aI13
aI15
aI17
aI13
aI16
aI16
aI13
aI18
aa(lp919
I2
aI5
aI4
aI10
aI11
aI10
aI11
aI12
aI16
aI13
aI14
aI14
aI16
aI17
aI15
aI14
aI15
aI16
aI18
aI14
aa(lp920
I1
aI6
aI5
aI9
aI8
aI4
aI8
aI9
aI8
aI7
aI13
aI11
aI14
aI10
aI13
aI11
aI10
aI15
aI10
aI14
aa(lp921
I5
aI1
aI1
aI7
aI6
aI9
aI8
aI7
aI5
aI6
aI4
aI8
aI12
aI12
aI14
aI12
aI14
aI15
aI15
aI15
aa(lp922
I1
aI9
aI9
aI5
aI8
aI8
aI10
aI10
aI13
aI15
aI13
aI15
aI12
aI13
aI10
aI10
aI13
aI10
aI11
aI14
aa(lp923
I6
aI6
aI12
aI11
aI14
aI11
aI11
aI13
aI17
aI16
aI18
aI14
aI16
aI18
aI14
aI13
aI16
aI14
aI14
aI17
aa(lp924
I1
aI5
aI7
aI7
aI8
aI8
aI12
aI11
aI12
aI10
aI10
aI7
aI11
aI11
aI13
aI10
aI18
aI17
aI18
aI13
aa(lp925
I6
aI3
aI5
aI1
aI4
aI8
aI8
aI8
aI15
aI18
aI17
aI15
aI13
aI18
aI14
aI15
aI15
aI13
aI15
aI18
aa(lp926
I3
aI3
aI4
aI8
aI6
aI9
aI4
aI9
aI7
aI10
aI12
aI12
aI12
aI13
aI10
aI14
aI13
aI12
aI14
aI17
aa(lp927
I4
aI4
aI12
aI7
aI10
aI9
aI9
aI12
aI7
aI10
aI8
aI9
aI11
aI11
aI10
aI15
aI17
aI18
aI13
aI13
aa(lp928
I6
aI5
aI9
aI9
aI15
aI13
aI10
aI10
aI14
aI15
aI11
aI12
aI10
aI11
aI17
aI15
aI17
aI17
aI18
aI16
aa(lp929
I3
aI2
aI7
aI8
aI8
aI12
aI14
aI13
aI17
aI14
aI14
aI17
aI15
aI14
aI13
aI18
aI13
aI18
aI13
aI15
aa(lp930
I4
aI5
aI4
aI4
aI12
aI11
aI10
aI15
aI12
aI15
aI16
aI16
aI16
aI15
aI18
aI17
aI17
aI13
aI13
aI13
aa(lp931
I1
aI2
aI4
aI4
aI8
aI11
aI9
aI10
aI12
aI12
aI11
aI9
aI12
aI13
aI14
aI18
aI16
aI15
aI17
aI15
aa(lp932
I5
aI5
aI7
aI8
aI7
aI9
aI10
aI14
aI12
aI10
aI10
aI12
aI14
aI13
aI14
aI15
aI15
aI10
aI12
aI12
aa(lp933
I2
aI7
aI9
aI7
aI10
aI11
aI9
aI10
aI17
aI14
aI13
aI18
aI13
aI18
aI17
aI14
aI17
aI18
aI13
aI15
aa(lp934
I2
aI3
aI3
aI5
aI9
aI7
aI10
aI10
aI10
aI15
aI13
aI11
aI15
aI18
aI15
aI17
aI16
aI15
aI14
aI17
aa(lp935
I2
aI1
aI3
aI4
aI12
aI7
aI12
aI15
aI10
aI15
aI14
aI10
aI13
aI10
aI12
aI15
aI14
aI14
aI18
aI15
aa(lp936
I6
aI4
aI9
aI8
aI10
aI7
aI8
aI9
aI11
aI12
aI8
aI9
aI7
aI10
aI7
aI8
aI10
aI12
aI10
aI10
aa(lp937
I3
aI9
aI9
aI4
aI9
aI9
aI7
aI7
aI6
aI9
aI7
aI12
aI14
aI16
aI13
aI18
aI18
aI18
aI15
aI13
aa(lp938
I3
aI8
aI10
aI9
aI10
aI14
aI11
aI12
aI15
aI12
aI15
aI13
aI15
aI11
aI13
aI16
aI13
aI14
aI18
aI18
aa(lp939
I1
aI8
aI6
aI9
aI8
aI12
aI10
aI9
aI12
aI9
aI12
aI9
aI9
aI12
aI15
aI15
aI12
aI11
aI12
aI12
aa(lp940
I5
aI6
aI7
aI6
aI9
aI10
aI12
aI7
aI7
aI11
aI9
aI10
aI12
aI10
aI10
aI12
aI15
aI12
aI10
aI15
aa(lp941
I5
aI7
aI9
aI12
aI11
aI11
aI12
aI15
aI15
aI12
aI12
aI16
aI15
aI17
aI13
aI15
aI14
aI14
aI15
aI15
aa(lp942
I2
aI1
aI6
aI4
aI5
aI10
aI12
aI12
aI12
aI11
aI10
aI15
aI10
aI11
aI12
aI17
aI16
aI13
aI14
aI13
aa(lp943
I4
aI6
aI2
aI6
aI9
aI9
aI8
aI4
aI8
aI7
aI13
aI13
aI14
aI17
aI18
aI14
aI16
aI15
aI17
aI14
aa(lp944
I5
aI7
aI7
aI13
aI15
aI18
aI17
aI13
aI18
aI17
aI18
aI16
aI17
aI17
aI15
aI16
aI17
aI16
aI17
aI14
aa(lp945
I3
aI1
aI5
aI5
aI12
aI7
aI9
aI12
aI9
aI7
aI11
aI14
aI13
aI13
aI17
aI14
aI18
aI16
aI13
aI14
aa(lp946
I6
aI7
aI6
aI7
aI12
aI11
aI12
aI10
aI10
aI12
aI10
aI13
aI15
aI13
aI18
aI15
aI15
aI16
aI16
aI18
aa(lp947
I4
aI5
aI6
aI9
aI15
aI12
aI12
aI12
aI10
aI13
aI15
aI15
aI18
aI14
aI13
aI17
aI18
aI14
aI16
aI14
aa(lp948
I3
aI9
aI6
aI5
aI7
aI4
aI6
aI9
aI10
aI9
aI11
aI10
aI8
aI8
aI13
aI14
aI14
aI17
aI15
aI16
aa(lp949
I2
aI1
aI4
aI5
aI8
aI7
aI6
aI8
aI8
aI4
aI8
aI11
aI12
aI12
aI10
aI10
aI14
aI14
aI16
aI15
aa(lp950
I1
aI4
aI8
aI9
aI7
aI9
aI12
aI10
aI10
aI14
aI11
aI10
aI15
aI13
aI11
aI15
aI10
aI15
aI17
aI18
aa(lp951
I2
aI9
aI5
aI9
aI10
aI14
aI10
aI13
aI15
aI11
aI15
aI15
aI11
aI14
aI16
aI14
aI14
aI16
aI16
aI13
aa(lp952
I2
aI2
aI9
aI4
aI7
aI8
aI10
aI10
aI12
aI14
aI16
aI17
aI18
aI14
aI17
aI17
aI15
aI17
aI15
aI16
aa(lp953
I4
aI9
aI9
aI9
aI10
aI7
aI7
aI14
aI14
aI12
aI15
aI13
aI12
aI13
aI14
aI18
aI13
aI14
aI17
aI17
aa(lp954
I3
aI1
aI2
aI8
aI8
aI12
aI8
aI7
aI12
aI15
aI15
aI17
aI17
aI15
aI18
aI14
aI13
aI15
aI14
aI18
aa(lp955
I6
aI5
aI5
aI1
aI4
aI12
aI9
aI12
aI12
aI14
aI14
aI10
aI13
aI10
aI10
aI12
aI12
aI13
aI13
aI14
aa(lp956
I1
aI3
aI2
aI5
aI10
aI7
aI10
aI12
aI9
aI11
aI12
aI10
aI14
aI15
aI18
aI14
aI14
aI18
aI15
aI17
aa(lp957
I1
aI2
aI5
aI7
aI4
aI7
aI11
aI12
aI10
aI16
aI15
aI18
aI18
aI13
aI18
aI14
aI16
aI17
aI16
aI13
aa(lp958
I6
aI1
aI2
aI9
aI4
aI5
aI8
aI15
aI13
aI11
aI11
aI10
aI13
aI16
aI13
aI15
aI14
aI18
aI17
aI18
aa(lp959
I2
aI1
aI3
aI4
aI5
aI5
aI9
aI7
aI9
aI9
aI6
aI6
aI7
aI10
aI14
aI14
aI14
aI10
aI14
aI15
aa(lp960
I2
aI4
aI8
aI8
aI10
aI11
aI7
aI11
aI8
aI15
aI15
aI11
aI14
aI11
aI10
aI10
aI12
aI12
aI14
aI15
aa(lp961
I6
aI6
aI3
aI5
aI4
aI8
aI8
aI12
aI11
aI10
aI15
aI13
aI12
aI10
aI13
aI15
aI10
aI10
aI10
aI11
aa(lp962
I5
aI1
aI6
aI4
aI11
aI12
aI12
aI13
aI15
aI13
aI11
aI12
aI14
aI12
aI13
aI15
aI11
aI10
aI11
aI10
aa(lp963
I5
aI7
aI6
aI8
aI8
aI7
aI11
aI12
aI11
aI8
aI8
aI12
aI9
aI12
aI14
aI12
aI12
aI18
aI17
aI16
aa(lp964
I1
aI6
aI4
aI1
aI3
aI7
aI9
aI8
aI11
aI8
aI13
aI12
aI15
aI13
aI15
aI16
aI13
aI16
aI16
aI17
aa(lp965
I6
aI6
aI5
aI4
aI4
aI12
aI11
aI8
aI8
aI10
aI12
aI11
aI15
aI18
aI18
aI14
aI18
aI18
aI16
aI15
aa(lp966
I3
aI2
aI2
aI6
aI7
aI9
aI4
aI6
aI4
aI9
aI12
aI7
aI8
aI12
aI12
aI12
aI9
aI7
aI7
aI12
aa(lp967
I6
aI5
aI5
aI5
aI9
aI12
aI14
aI14
aI13
aI13
aI16
aI13
aI15
aI14
aI16
aI13
aI17
aI18
aI15
aI18
aa(lp968
I6
aI8
aI7
aI11
aI10
aI9
aI11
aI7
aI11
aI13
aI15
aI14
aI15
aI14
aI16
aI18
aI15
aI18
aI14
aI18
aa(lp969
I2
aI6
aI5
aI9
aI6
aI7
aI12
aI8
aI13
aI14
aI12
aI11
aI11
aI11
aI16
aI15
aI13
aI16
aI16
aI16
aa(lp970
I6
aI4
aI6
aI9
aI9
aI11
aI9
aI10
aI12
aI15
aI13
aI11
aI10
aI10
aI12
aI14
aI15
aI14
aI17
aI13
aa(lp971
I2
aI9
aI8
aI12
aI12
aI9
aI10
aI15
aI14
aI11
aI12
aI14
aI15
aI10
aI15
aI15
aI12
aI12
aI15
aI10
aa(lp972
I6
aI6
aI9
aI4
aI8
aI8
aI10
aI10
aI15
aI17
aI17
aI17
aI18
aI14
aI17
aI18
aI15
aI16
aI15
aI18
aa(lp973
I5
aI6
aI6
aI6
aI10
aI11
aI15
aI13
aI14
aI15
aI12
aI14
aI18
aI15
aI17
aI14
aI15
aI13
aI15
aI18
aa(lp974
I4
aI7
aI10
aI10
aI11
aI12
aI10
aI12
aI14
aI10
aI15
aI18
aI14
aI16
aI18
aI18
aI16
aI14
aI18
aI14
aa(lp975
I5
aI5
aI2
aI2
aI8
aI7
aI10
aI10
aI15
aI17
aI13
aI17
aI14
aI14
aI13
aI18
aI18
aI17
aI15
aI16
aa(lp976
I1
aI1
aI3
aI1
aI6
aI7
aI10
aI7
aI9
aI10
aI12
aI14
aI15
aI10
aI11
aI15
aI13
aI15
aI16
aI16
aa(lp977
I5
aI6
aI1
aI1
aI9
aI7
aI12
aI11
aI10
aI12
aI10
aI17
aI16
aI14
aI14
aI18
aI16
aI16
aI18
aI16
aa(lp978
I4
aI6
aI7
aI11
aI7
aI12
aI11
aI16
aI15
aI13
aI18
aI13
aI13
aI14
aI15
aI17
aI18
aI18
aI17
aI17
aa(lp979
I2
aI5
aI5
aI8
aI9
aI8
aI9
aI5
aI4
aI7
aI7
aI8
aI12
aI15
aI14
aI17
aI13
aI14
aI18
aI18
aa(lp980
I4
aI1
aI5
aI10
aI8
aI7
aI12
aI8
aI9
aI11
aI12
aI8
aI11
aI8
aI11
aI9
aI14
aI11
aI13
aI16
aa(lp981
I5
aI4
aI5
aI11
aI11
aI8
aI7
aI12
aI9
aI8
aI8
aI10
aI11
aI7
aI14
aI15
aI12
aI15
aI10
aI13
aa(lp982
I1
aI7
aI8
aI9
aI7
aI11
aI11
aI12
aI12
aI11
aI12
aI10
aI17
aI15
aI16
aI13
aI16
aI14
aI13
aI13
aa(lp983
I5
aI5
aI3
aI2
aI4
aI5
aI9
aI8
aI7
aI11
aI10
aI14
aI11
aI13
aI17
aI18
aI13
aI18
aI14
aI13
aa(lp984
I4
aI4
aI6
aI9
aI9
aI12
aI12
aI15
aI15
aI16
aI16
aI15
aI16
aI14
aI14
aI16
aI14
aI14
aI18
aI15
aa(lp985
I2
aI4
aI4
aI8
aI5
aI7
aI4
aI10
aI8
aI10
aI11
aI9
aI13
aI14
aI13
aI16
aI18
aI17
aI16
aI13
aa(lp986
I1
aI1
aI6
aI5
aI11
aI14
aI14
aI11
aI10
aI16
aI16
aI14
aI18
aI18
aI16
aI13
aI18
aI17
aI18
aI17
aa(lp987
I5
aI4
aI9
aI5
aI6
aI7
aI15
aI15
aI13
aI13
aI13
aI16
aI15
aI14
aI17
aI16
aI15
aI18
aI15
aI16
aa(lp988
I3
aI3
aI6
aI9
aI4
aI10
aI11
aI9
aI11
aI11
aI11
aI11
aI10
aI12
aI15
aI15
aI14
aI17
aI16
aI17
aa(lp989
I3
aI4
aI7
aI6
aI10
aI9
aI7
aI12
aI15
aI14
aI12
aI10
aI10
aI14
aI13
aI14
aI17
aI18
aI16
aI16
aa(lp990
I1
aI7
aI10
aI14
aI18
aI18
aI18
aI17
aI13
aI16
aI13
aI18
aI13
aI17
aI13
aI17
aI14
aI17
aI13
aI16
aa(lp991
I2
aI6
aI2
aI6
aI8
aI9
aI12
aI11
aI13
aI13
aI13
aI18
aI16
aI16
aI16
aI15
aI17
aI17
aI18
aI16
aa(lp992
I2
aI5
aI1
aI5
aI4
aI8
aI14
aI13
aI16
aI16
aI18
aI14
aI16
aI15
aI18
aI13
aI13
aI17
aI14
aI17
aa(lp993
I4
aI5
aI12
aI7
aI12
aI12
aI11
aI13
aI14
aI17
aI14
aI16
aI16
aI16
aI14
aI18
aI18
aI16
aI15
aI17
aa(lp994
I4
aI8
aI9
aI12
aI13
aI11
aI16
aI13
aI14
aI15
aI16
aI13
aI16
aI16
aI16
aI15
aI14
aI15
aI14
aI14
aa(lp995
I6
aI1
aI6
aI9
aI14
aI15
aI12
aI13
aI12
aI18
aI15
aI13
aI13
aI18
aI17
aI16
aI14
aI15
aI16
aI17
aa(lp996
I6
aI7
aI7
aI6
aI5
aI4
aI6
aI7
aI9
aI10
aI10
aI12
aI14
aI16
aI16
aI15
aI13
aI14
aI13
aI14
aa(lp997
I2
aI1
aI1
aI7
aI9
aI9
aI9
aI9
aI12
aI11
aI12
aI9
aI12
aI9
aI11
aI12
aI12
aI14
aI14
aI15
aa(lp998
I3
aI5
aI12
aI11
aI7
aI11
aI10
aI14
aI15
aI11
aI14
aI15
aI10
aI15
aI17
aI15
aI17
aI13
aI16
aI16
aa(lp999
I6
aI6
aI6
aI9
aI11
aI12
aI15
aI14
aI17
aI18
aI17
aI17
aI14
aI18
aI17
aI16
aI13
aI16
aI13
aI17
aa(lp1000
I2
aI8
aI9
aI9
aI9
aI10
aI11
aI13
aI17
aI15
aI17
aI15
aI17
aI13
aI14
aI13
aI14
aI18
aI17
aI17
aa.